ccopy_reg
_reconstructor
p1
(cNeuroTools.signals.spikes
SpikeList
p2
c__builtin__
object
p3
NtRp4
(dp5
S'spiketrains'
p6
(dp7
cnumpy.core.multiarray
scalar
p8
(cnumpy
dtype
p9
(S'i8'
I0
I1
tRp10
(I3
S'<'
NNNI-1
I-1
I0
tbS'\x01\x00\x00\x00\x00\x00\x00\x00'
tRp11
g1
(cNeuroTools.signals.spikes
SpikeTrain
p12
g3
NtRp13
(dp14
S'spike_times'
p15
cnumpy.core.multiarray
_reconstruct
p16
(cnumpy
ndarray
p17
(I0
tS'b'
tRp18
(I1
(I0
tg9
(S'f4'
I0
I1
tRp19
(I3
S'<'
NNNI-1
I-1
I0
tbI00
S''
tbsS't_stop'
p20
F20000
sS't_start'
p21
I1
sbsg8
(g10
S'\x02\x00\x00\x00\x00\x00\x00\x00'
tRp22
g1
(g12
g3
NtRp23
(dp24
g15
g16
(g17
(I0
tS'b'
tRp25
(I1
(I0
tg19
I00
S''
tbsg20
F20000
sg21
I1
sbsg8
(g10
S'\x03\x00\x00\x00\x00\x00\x00\x00'
tRp26
g1
(g12
g3
NtRp27
(dp28
g15
g16
(g17
(I0
tS'b'
tRp29
(I1
(I0
tg19
I00
S''
tbsg20
F20000
sg21
I1
sbsg8
(g10
S'\x04\x00\x00\x00\x00\x00\x00\x00'
tRp30
g1
(g12
g3
NtRp31
(dp32
g15
g16
(g17
(I0
tS'b'
tRp33
(I1
(I0
tg19
I00
S''
tbsg20
F20000
sg21
I1
sbsg8
(g10
S'\x05\x00\x00\x00\x00\x00\x00\x00'
tRp34
g1
(g12
g3
NtRp35
(dp36
g15
g16
(g17
(I0
tS'b'
tRp37
(I1
(I0
tg19
I00
S''
tbsg20
F20000
sg21
I1
sbsg8
(g19
S'\x00\x00\xc0@'
tRp38
g1
(g12
g3
NtRp39
(dp40
g15
g16
(g17
(I0
tS'b'
tRp41
(I1
(I11
tg19
I00
S'\x9a\x01\xa4E\x9au\xf7E\x9a\xa3\x10F\xcd,\x1fF\x9aa)F\x00L_FfFjF\x9a\x95\x81F3\xbe\x86F\x00\xa3\x8dF\x00\xdc\x99F'
tbsg20
F20000
sg21
I1
sbsg8
(g10
S'\x07\x00\x00\x00\x00\x00\x00\x00'
tRp42
g1
(g12
g3
NtRp43
(dp44
g15
g16
(g17
(I0
tS'b'
tRp45
(I1
(I0
tg19
I00
S''
tbsg20
F20000
sg21
I1
sbsg8
(g10
S'\x08\x00\x00\x00\x00\x00\x00\x00'
tRp46
g1
(g12
g3
NtRp47
(dp48
g15
g16
(g17
(I0
tS'b'
tRp49
(I1
(I0
tg19
I00
S''
tbsg20
F20000
sg21
I1
sbsg8
(g10
S'\t\x00\x00\x00\x00\x00\x00\x00'
tRp50
g1
(g12
g3
NtRp51
(dp52
g15
g16
(g17
(I0
tS'b'
tRp53
(I1
(I0
tg19
I00
S''
tbsg20
F20000
sg21
I1
sbsg8
(g10
S'\n\x00\x00\x00\x00\x00\x00\x00'
tRp54
g1
(g12
g3
NtRp55
(dp56
g15
g16
(g17
(I0
tS'b'
tRp57
(I1
(I0
tg19
I00
S''
tbsg20
F20000
sg21
I1
sbsg8
(g10
S'\x0b\x00\x00\x00\x00\x00\x00\x00'
tRp58
g1
(g12
g3
NtRp59
(dp60
g15
g16
(g17
(I0
tS'b'
tRp61
(I1
(I0
tg19
I00
S''
tbsg20
F20000
sg21
I1
sbsg8
(g10
S'\x0c\x00\x00\x00\x00\x00\x00\x00'
tRp62
g1
(g12
g3
NtRp63
(dp64
g15
g16
(g17
(I0
tS'b'
tRp65
(I1
(I0
tg19
I00
S''
tbsg20
F20000
sg21
I1
sbsg8
(g10
S'\r\x00\x00\x00\x00\x00\x00\x00'
tRp66
g1
(g12
g3
NtRp67
(dp68
g15
g16
(g17
(I0
tS'b'
tRp69
(I1
(I0
tg19
I00
S''
tbsg20
F20000
sg21
I1
sbsg8
(g19
S'\x00\x00`A'
tRp70
g1
(g12
g3
NtRp71
(dp72
g15
g16
(g17
(I0
tS'b'
tRp73
(I1
(I10
tg19
I00
S'\xcdD\xd7E3\xf7\xe9E3\xdf\x02F3\xc3?F3W_F\x00\x8egF\x00>qF\x9aa\x83F\xcdS\x97F\xcd=\x9aF'
tbsg20
F20000
sg21
I1
sbsg8
(g10
S'\x0f\x00\x00\x00\x00\x00\x00\x00'
tRp74
g1
(g12
g3
NtRp75
(dp76
g15
g16
(g17
(I0
tS'b'
tRp77
(I1
(I0
tg19
I00
S''
tbsg20
F20000
sg21
I1
sbsg8
(g10
S'\x10\x00\x00\x00\x00\x00\x00\x00'
tRp78
g1
(g12
g3
NtRp79
(dp80
g15
g16
(g17
(I0
tS'b'
tRp81
(I1
(I0
tg19
I00
S''
tbsg20
F20000
sg21
I1
sbsg8
(g10
S'\x11\x00\x00\x00\x00\x00\x00\x00'
tRp82
g1
(g12
g3
NtRp83
(dp84
g15
g16
(g17
(I0
tS'b'
tRp85
(I1
(I0
tg19
I00
S''
tbsg20
F20000
sg21
I1
sbsg8
(g10
S'\x12\x00\x00\x00\x00\x00\x00\x00'
tRp86
g1
(g12
g3
NtRp87
(dp88
g15
g16
(g17
(I0
tS'b'
tRp89
(I1
(I0
tg19
I00
S''
tbsg20
F20000
sg21
I1
sbsg8
(g10
S'\x13\x00\x00\x00\x00\x00\x00\x00'
tRp90
g1
(g12
g3
NtRp91
(dp92
g15
g16
(g17
(I0
tS'b'
tRp93
(I1
(I0
tg19
I00
S''
tbsg20
F20000
sg21
I1
sbsg8
(g10
S'\x14\x00\x00\x00\x00\x00\x00\x00'
tRp94
g1
(g12
g3
NtRp95
(dp96
g15
g16
(g17
(I0
tS'b'
tRp97
(I1
(I0
tg19
I00
S''
tbsg20
F20000
sg21
I1
sbsg8
(g10
S'\x15\x00\x00\x00\x00\x00\x00\x00'
tRp98
g1
(g12
g3
NtRp99
(dp100
g15
g16
(g17
(I0
tS'b'
tRp101
(I1
(I0
tg19
I00
S''
tbsg20
F20000
sg21
I1
sbsg8
(g19
S'\x00\x00\xb0A'
tRp102
g1
(g12
g3
NtRp103
(dp104
g15
g16
(g17
(I0
tS'b'
tRp105
(I1
(I9
tg19
I00
S'\x9a\xb1 E\x9aQHEff\xc9E\x00\xa0\xe4E\x9aq\xecE\x00\x8e\x06Ff\x82\x10F\x9a-<F\x9acpF'
tbsg20
F20000
sg21
I1
sbsg8
(g10
S'\x17\x00\x00\x00\x00\x00\x00\x00'
tRp106
g1
(g12
g3
NtRp107
(dp108
g15
g16
(g17
(I0
tS'b'
tRp109
(I1
(I0
tg19
I00
S''
tbsg20
F20000
sg21
I1
sbsg8
(g10
S'\x18\x00\x00\x00\x00\x00\x00\x00'
tRp110
g1
(g12
g3
NtRp111
(dp112
g15
g16
(g17
(I0
tS'b'
tRp113
(I1
(I0
tg19
I00
S''
tbsg20
F20000
sg21
I1
sbsg8
(g10
S'\x19\x00\x00\x00\x00\x00\x00\x00'
tRp114
g1
(g12
g3
NtRp115
(dp116
g15
g16
(g17
(I0
tS'b'
tRp117
(I1
(I0
tg19
I00
S''
tbsg20
F20000
sg21
I1
sbsg8
(g10
S'\x1a\x00\x00\x00\x00\x00\x00\x00'
tRp118
g1
(g12
g3
NtRp119
(dp120
g15
g16
(g17
(I0
tS'b'
tRp121
(I1
(I0
tg19
I00
S''
tbsg20
F20000
sg21
I1
sbsg8
(g10
S'\x1b\x00\x00\x00\x00\x00\x00\x00'
tRp122
g1
(g12
g3
NtRp123
(dp124
g15
g16
(g17
(I0
tS'b'
tRp125
(I1
(I0
tg19
I00
S''
tbsg20
F20000
sg21
I1
sbsg8
(g10
S'\x1c\x00\x00\x00\x00\x00\x00\x00'
tRp126
g1
(g12
g3
NtRp127
(dp128
g15
g16
(g17
(I0
tS'b'
tRp129
(I1
(I0
tg19
I00
S''
tbsg20
F20000
sg21
I1
sbsg8
(g10
S'\x1d\x00\x00\x00\x00\x00\x00\x00'
tRp130
g1
(g12
g3
NtRp131
(dp132
g15
g16
(g17
(I0
tS'b'
tRp133
(I1
(I0
tg19
I00
S''
tbsg20
F20000
sg21
I1
sbsg8
(g19
S'\x00\x00\xf0A'
tRp134
g1
(g12
g3
NtRp135
(dp136
g15
g16
(g17
(I0
tS'b'
tRp137
(I1
(I13
tg19
I00
S"\x9a!\x98E3k\xabEf\xdc\x05F\x00`'F\xcdx?F\x00<CF\x9a\x0bGF\x9a?iF3\xc3uF\x9a\xed\x86F\x9a\xd8\x8aF\x9a\xc4\x8dF\x9a\xf3\x94F"
tbsg20
F20000
sg21
I1
sbsg8
(g10
S'\x1f\x00\x00\x00\x00\x00\x00\x00'
tRp138
g1
(g12
g3
NtRp139
(dp140
g15
g16
(g17
(I0
tS'b'
tRp141
(I1
(I0
tg19
I00
S''
tbsg20
F20000
sg21
I1
sbsg8
(g10
S' \x00\x00\x00\x00\x00\x00\x00'
tRp142
g1
(g12
g3
NtRp143
(dp144
g15
g16
(g17
(I0
tS'b'
tRp145
(I1
(I0
tg19
I00
S''
tbsg20
F20000
sg21
I1
sbsg8
(g10
S'!\x00\x00\x00\x00\x00\x00\x00'
tRp146
g1
(g12
g3
NtRp147
(dp148
g15
g16
(g17
(I0
tS'b'
tRp149
(I1
(I0
tg19
I00
S''
tbsg20
F20000
sg21
I1
sbsg8
(g10
S'"\x00\x00\x00\x00\x00\x00\x00'
tRp150
g1
(g12
g3
NtRp151
(dp152
g15
g16
(g17
(I0
tS'b'
tRp153
(I1
(I0
tg19
I00
S''
tbsg20
F20000
sg21
I1
sbsg8
(g10
S'#\x00\x00\x00\x00\x00\x00\x00'
tRp154
g1
(g12
g3
NtRp155
(dp156
g15
g16
(g17
(I0
tS'b'
tRp157
(I1
(I0
tg19
I00
S''
tbsg20
F20000
sg21
I1
sbsg8
(g10
S'$\x00\x00\x00\x00\x00\x00\x00'
tRp158
g1
(g12
g3
NtRp159
(dp160
g15
g16
(g17
(I0
tS'b'
tRp161
(I1
(I0
tg19
I00
S''
tbsg20
F20000
sg21
I1
sbsg8
(g10
S'%\x00\x00\x00\x00\x00\x00\x00'
tRp162
g1
(g12
g3
NtRp163
(dp164
g15
g16
(g17
(I0
tS'b'
tRp165
(I1
(I0
tg19
I00
S''
tbsg20
F20000
sg21
I1
sbsg8
(g19
S'\x00\x00\x18B'
tRp166
g1
(g12
g3
NtRp167
(dp168
g15
g16
(g17
(I0
tS'b'
tRp169
(I1
(I8
tg19
I00
S'\x00H\xbdE\x9aM\xc1E3E\x0cFf\x041F3\x8f7F\x00\xd0\x83Ff0\x94F\x001\x98F'
tbsg20
F20000
sg21
I1
sbsg8
(g10
S"'\x00\x00\x00\x00\x00\x00\x00"
tRp170
g1
(g12
g3
NtRp171
(dp172
g15
g16
(g17
(I0
tS'b'
tRp173
(I1
(I0
tg19
I00
S''
tbsg20
F20000
sg21
I1
sbsg8
(g10
S'(\x00\x00\x00\x00\x00\x00\x00'
tRp174
g1
(g12
g3
NtRp175
(dp176
g15
g16
(g17
(I0
tS'b'
tRp177
(I1
(I0
tg19
I00
S''
tbsg20
F20000
sg21
I1
sbsg8
(g10
S')\x00\x00\x00\x00\x00\x00\x00'
tRp178
g1
(g12
g3
NtRp179
(dp180
g15
g16
(g17
(I0
tS'b'
tRp181
(I1
(I0
tg19
I00
S''
tbsg20
F20000
sg21
I1
sbsg8
(g10
S'*\x00\x00\x00\x00\x00\x00\x00'
tRp182
g1
(g12
g3
NtRp183
(dp184
g15
g16
(g17
(I0
tS'b'
tRp185
(I1
(I0
tg19
I00
S''
tbsg20
F20000
sg21
I1
sbsg8
(g10
S'+\x00\x00\x00\x00\x00\x00\x00'
tRp186
g1
(g12
g3
NtRp187
(dp188
g15
g16
(g17
(I0
tS'b'
tRp189
(I1
(I0
tg19
I00
S''
tbsg20
F20000
sg21
I1
sbsg8
(g10
S',\x00\x00\x00\x00\x00\x00\x00'
tRp190
g1
(g12
g3
NtRp191
(dp192
g15
g16
(g17
(I0
tS'b'
tRp193
(I1
(I0
tg19
I00
S''
tbsg20
F20000
sg21
I1
sbsg8
(g10
S'-\x00\x00\x00\x00\x00\x00\x00'
tRp194
g1
(g12
g3
NtRp195
(dp196
g15
g16
(g17
(I0
tS'b'
tRp197
(I1
(I0
tg19
I00
S''
tbsg20
F20000
sg21
I1
sbsg8
(g19
S'\x00\x008B'
tRp198
g1
(g12
g3
NtRp199
(dp200
g15
g16
(g17
(I0
tS'b'
tRp201
(I1
(I10
tg19
I00
S'\x9a!\xb0Ef\xe0\x14Ff\xa4KFf&YF\xcdRiF\xcd\xf7\x80F\x00\xdf\x8aF\xcd\xa9\x8cF\xcd%\x90Ffr\x92F'
tbsg20
F20000
sg21
I1
sbsg8
(g10
S'/\x00\x00\x00\x00\x00\x00\x00'
tRp202
g1
(g12
g3
NtRp203
(dp204
g15
g16
(g17
(I0
tS'b'
tRp205
(I1
(I0
tg19
I00
S''
tbsg20
F20000
sg21
I1
sbsg8
(g10
S'0\x00\x00\x00\x00\x00\x00\x00'
tRp206
g1
(g12
g3
NtRp207
(dp208
g15
g16
(g17
(I0
tS'b'
tRp209
(I1
(I0
tg19
I00
S''
tbsg20
F20000
sg21
I1
sbsg8
(g10
S'1\x00\x00\x00\x00\x00\x00\x00'
tRp210
g1
(g12
g3
NtRp211
(dp212
g15
g16
(g17
(I0
tS'b'
tRp213
(I1
(I0
tg19
I00
S''
tbsg20
F20000
sg21
I1
sbsg8
(g10
S'2\x00\x00\x00\x00\x00\x00\x00'
tRp214
g1
(g12
g3
NtRp215
(dp216
g15
g16
(g17
(I0
tS'b'
tRp217
(I1
(I0
tg19
I00
S''
tbsg20
F20000
sg21
I1
sbsg8
(g10
S'3\x00\x00\x00\x00\x00\x00\x00'
tRp218
g1
(g12
g3
NtRp219
(dp220
g15
g16
(g17
(I0
tS'b'
tRp221
(I1
(I0
tg19
I00
S''
tbsg20
F20000
sg21
I1
sbsg8
(g10
S'4\x00\x00\x00\x00\x00\x00\x00'
tRp222
g1
(g12
g3
NtRp223
(dp224
g15
g16
(g17
(I0
tS'b'
tRp225
(I1
(I0
tg19
I00
S''
tbsg20
F20000
sg21
I1
sbsg8
(g10
S'5\x00\x00\x00\x00\x00\x00\x00'
tRp226
g1
(g12
g3
NtRp227
(dp228
g15
g16
(g17
(I0
tS'b'
tRp229
(I1
(I0
tg19
I00
S''
tbsg20
F20000
sg21
I1
sbsg8
(g19
S'\x00\x00XB'
tRp230
g1
(g12
g3
NtRp231
(dp232
g15
g16
(g17
(I0
tS'b'
tRp233
(I1
(I2
tg19
I00
S'\xcdk\x8aF\x00\x98\x8cF'
tbsg20
F20000
sg21
I1
sbsg8
(g10
S'7\x00\x00\x00\x00\x00\x00\x00'
tRp234
g1
(g12
g3
NtRp235
(dp236
g15
g16
(g17
(I0
tS'b'
tRp237
(I1
(I0
tg19
I00
S''
tbsg20
F20000
sg21
I1
sbsg8
(g10
S'8\x00\x00\x00\x00\x00\x00\x00'
tRp238
g1
(g12
g3
NtRp239
(dp240
g15
g16
(g17
(I0
tS'b'
tRp241
(I1
(I0
tg19
I00
S''
tbsg20
F20000
sg21
I1
sbsg8
(g10
S'9\x00\x00\x00\x00\x00\x00\x00'
tRp242
g1
(g12
g3
NtRp243
(dp244
g15
g16
(g17
(I0
tS'b'
tRp245
(I1
(I0
tg19
I00
S''
tbsg20
F20000
sg21
I1
sbsg8
(g10
S':\x00\x00\x00\x00\x00\x00\x00'
tRp246
g1
(g12
g3
NtRp247
(dp248
g15
g16
(g17
(I0
tS'b'
tRp249
(I1
(I0
tg19
I00
S''
tbsg20
F20000
sg21
I1
sbsg8
(g10
S';\x00\x00\x00\x00\x00\x00\x00'
tRp250
g1
(g12
g3
NtRp251
(dp252
g15
g16
(g17
(I0
tS'b'
tRp253
(I1
(I0
tg19
I00
S''
tbsg20
F20000
sg21
I1
sbsg8
(g10
S'<\x00\x00\x00\x00\x00\x00\x00'
tRp254
g1
(g12
g3
NtRp255
(dp256
g15
g16
(g17
(I0
tS'b'
tRp257
(I1
(I0
tg19
I00
S''
tbsg20
F20000
sg21
I1
sbsg8
(g10
S'=\x00\x00\x00\x00\x00\x00\x00'
tRp258
g1
(g12
g3
NtRp259
(dp260
g15
g16
(g17
(I0
tS'b'
tRp261
(I1
(I0
tg19
I00
S''
tbsg20
F20000
sg21
I1
sbsg8
(g19
S'\x00\x00xB'
tRp262
g1
(g12
g3
NtRp263
(dp264
g15
g16
(g17
(I0
tS'b'
tRp265
(I1
(I2
tg19
I00
S'\x00{\x8bF\x00F\x97F'
tbsg20
F20000
sg21
I1
sbsg8
(g10
S'?\x00\x00\x00\x00\x00\x00\x00'
tRp266
g1
(g12
g3
NtRp267
(dp268
g15
g16
(g17
(I0
tS'b'
tRp269
(I1
(I0
tg19
I00
S''
tbsg20
F20000
sg21
I1
sbsg8
(g10
S'@\x00\x00\x00\x00\x00\x00\x00'
tRp270
g1
(g12
g3
NtRp271
(dp272
g15
g16
(g17
(I0
tS'b'
tRp273
(I1
(I0
tg19
I00
S''
tbsg20
F20000
sg21
I1
sbsg8
(g10
S'A\x00\x00\x00\x00\x00\x00\x00'
tRp274
g1
(g12
g3
NtRp275
(dp276
g15
g16
(g17
(I0
tS'b'
tRp277
(I1
(I0
tg19
I00
S''
tbsg20
F20000
sg21
I1
sbsg8
(g10
S'B\x00\x00\x00\x00\x00\x00\x00'
tRp278
g1
(g12
g3
NtRp279
(dp280
g15
g16
(g17
(I0
tS'b'
tRp281
(I1
(I0
tg19
I00
S''
tbsg20
F20000
sg21
I1
sbsg8
(g10
S'C\x00\x00\x00\x00\x00\x00\x00'
tRp282
g1
(g12
g3
NtRp283
(dp284
g15
g16
(g17
(I0
tS'b'
tRp285
(I1
(I0
tg19
I00
S''
tbsg20
F20000
sg21
I1
sbsg8
(g10
S'D\x00\x00\x00\x00\x00\x00\x00'
tRp286
g1
(g12
g3
NtRp287
(dp288
g15
g16
(g17
(I0
tS'b'
tRp289
(I1
(I0
tg19
I00
S''
tbsg20
F20000
sg21
I1
sbsg8
(g10
S'E\x00\x00\x00\x00\x00\x00\x00'
tRp290
g1
(g12
g3
NtRp291
(dp292
g15
g16
(g17
(I0
tS'b'
tRp293
(I1
(I0
tg19
I00
S''
tbsg20
F20000
sg21
I1
sbsg8
(g19
S'\x00\x00\x8cB'
tRp294
g1
(g12
g3
NtRp295
(dp296
g15
g16
(g17
(I0
tS'b'
tRp297
(I1
(I3
tg19
I00
S'\xcd8\xd9Ef\x80lF\xcd\xc5\x93F'
tbsg20
F20000
sg21
I1
sbsg8
(g10
S'G\x00\x00\x00\x00\x00\x00\x00'
tRp298
g1
(g12
g3
NtRp299
(dp300
g15
g16
(g17
(I0
tS'b'
tRp301
(I1
(I0
tg19
I00
S''
tbsg20
F20000
sg21
I1
sbsg8
(g10
S'H\x00\x00\x00\x00\x00\x00\x00'
tRp302
g1
(g12
g3
NtRp303
(dp304
g15
g16
(g17
(I0
tS'b'
tRp305
(I1
(I0
tg19
I00
S''
tbsg20
F20000
sg21
I1
sbsg8
(g10
S'I\x00\x00\x00\x00\x00\x00\x00'
tRp306
g1
(g12
g3
NtRp307
(dp308
g15
g16
(g17
(I0
tS'b'
tRp309
(I1
(I0
tg19
I00
S''
tbsg20
F20000
sg21
I1
sbsg8
(g10
S'J\x00\x00\x00\x00\x00\x00\x00'
tRp310
g1
(g12
g3
NtRp311
(dp312
g15
g16
(g17
(I0
tS'b'
tRp313
(I1
(I0
tg19
I00
S''
tbsg20
F20000
sg21
I1
sbsg8
(g10
S'K\x00\x00\x00\x00\x00\x00\x00'
tRp314
g1
(g12
g3
NtRp315
(dp316
g15
g16
(g17
(I0
tS'b'
tRp317
(I1
(I0
tg19
I00
S''
tbsg20
F20000
sg21
I1
sbsg8
(g10
S'L\x00\x00\x00\x00\x00\x00\x00'
tRp318
g1
(g12
g3
NtRp319
(dp320
g15
g16
(g17
(I0
tS'b'
tRp321
(I1
(I0
tg19
I00
S''
tbsg20
F20000
sg21
I1
sbsg8
(g10
S'M\x00\x00\x00\x00\x00\x00\x00'
tRp322
g1
(g12
g3
NtRp323
(dp324
g15
g16
(g17
(I0
tS'b'
tRp325
(I1
(I0
tg19
I00
S''
tbsg20
F20000
sg21
I1
sbsg8
(g19
S'\x00\x00\x9cB'
tRp326
g1
(g12
g3
NtRp327
(dp328
g15
g16
(g17
(I0
tS'b'
tRp329
(I1
(I3
tg19
I00
S'fN\xaeE\x9a%\x1cF3\xc5=F'
tbsg20
F20000
sg21
I1
sbsg8
(g10
S'O\x00\x00\x00\x00\x00\x00\x00'
tRp330
g1
(g12
g3
NtRp331
(dp332
g15
g16
(g17
(I0
tS'b'
tRp333
(I1
(I0
tg19
I00
S''
tbsg20
F20000
sg21
I1
sbsg8
(g10
S'P\x00\x00\x00\x00\x00\x00\x00'
tRp334
g1
(g12
g3
NtRp335
(dp336
g15
g16
(g17
(I0
tS'b'
tRp337
(I1
(I0
tg19
I00
S''
tbsg20
F20000
sg21
I1
sbsg8
(g10
S'Q\x00\x00\x00\x00\x00\x00\x00'
tRp338
g1
(g12
g3
NtRp339
(dp340
g15
g16
(g17
(I0
tS'b'
tRp341
(I1
(I0
tg19
I00
S''
tbsg20
F20000
sg21
I1
sbsg8
(g10
S'R\x00\x00\x00\x00\x00\x00\x00'
tRp342
g1
(g12
g3
NtRp343
(dp344
g15
g16
(g17
(I0
tS'b'
tRp345
(I1
(I0
tg19
I00
S''
tbsg20
F20000
sg21
I1
sbsg8
(g10
S'S\x00\x00\x00\x00\x00\x00\x00'
tRp346
g1
(g12
g3
NtRp347
(dp348
g15
g16
(g17
(I0
tS'b'
tRp349
(I1
(I0
tg19
I00
S''
tbsg20
F20000
sg21
I1
sbsg8
(g10
S'T\x00\x00\x00\x00\x00\x00\x00'
tRp350
g1
(g12
g3
NtRp351
(dp352
g15
g16
(g17
(I0
tS'b'
tRp353
(I1
(I0
tg19
I00
S''
tbsg20
F20000
sg21
I1
sbsg8
(g10
S'U\x00\x00\x00\x00\x00\x00\x00'
tRp354
g1
(g12
g3
NtRp355
(dp356
g15
g16
(g17
(I0
tS'b'
tRp357
(I1
(I0
tg19
I00
S''
tbsg20
F20000
sg21
I1
sbsg8
(g19
S'\x00\x00\xacB'
tRp358
g1
(g12
g3
NtRp359
(dp360
g15
g16
(g17
(I0
tS'b'
tRp361
(I1
(I2
tg19
I00
S'3\x91/F\x9a\x7fFF'
tbsg20
F20000
sg21
I1
sbsg8
(g10
S'W\x00\x00\x00\x00\x00\x00\x00'
tRp362
g1
(g12
g3
NtRp363
(dp364
g15
g16
(g17
(I0
tS'b'
tRp365
(I1
(I0
tg19
I00
S''
tbsg20
F20000
sg21
I1
sbsg8
(g10
S'X\x00\x00\x00\x00\x00\x00\x00'
tRp366
g1
(g12
g3
NtRp367
(dp368
g15
g16
(g17
(I0
tS'b'
tRp369
(I1
(I0
tg19
I00
S''
tbsg20
F20000
sg21
I1
sbsg8
(g10
S'Y\x00\x00\x00\x00\x00\x00\x00'
tRp370
g1
(g12
g3
NtRp371
(dp372
g15
g16
(g17
(I0
tS'b'
tRp373
(I1
(I0
tg19
I00
S''
tbsg20
F20000
sg21
I1
sbsg8
(g10
S'Z\x00\x00\x00\x00\x00\x00\x00'
tRp374
g1
(g12
g3
NtRp375
(dp376
g15
g16
(g17
(I0
tS'b'
tRp377
(I1
(I0
tg19
I00
S''
tbsg20
F20000
sg21
I1
sbsg8
(g10
S'[\x00\x00\x00\x00\x00\x00\x00'
tRp378
g1
(g12
g3
NtRp379
(dp380
g15
g16
(g17
(I0
tS'b'
tRp381
(I1
(I0
tg19
I00
S''
tbsg20
F20000
sg21
I1
sbsg8
(g10
S'\\\x00\x00\x00\x00\x00\x00\x00'
tRp382
g1
(g12
g3
NtRp383
(dp384
g15
g16
(g17
(I0
tS'b'
tRp385
(I1
(I0
tg19
I00
S''
tbsg20
F20000
sg21
I1
sbsg8
(g10
S']\x00\x00\x00\x00\x00\x00\x00'
tRp386
g1
(g12
g3
NtRp387
(dp388
g15
g16
(g17
(I0
tS'b'
tRp389
(I1
(I0
tg19
I00
S''
tbsg20
F20000
sg21
I1
sbsg8
(g19
S'\x00\x00\xbcB'
tRp390
g1
(g12
g3
NtRp391
(dp392
g15
g16
(g17
(I0
tS'b'
tRp393
(I1
(I6
tg19
I00
S'3\xa3\x0eE\xcd`\xa0E\x9a)\xccE\xcd8\xe0E\xcdD\xffE\x00\xf0\x1dF'
tbsg20
F20000
sg21
I1
sbsg8
(g10
S'_\x00\x00\x00\x00\x00\x00\x00'
tRp394
g1
(g12
g3
NtRp395
(dp396
g15
g16
(g17
(I0
tS'b'
tRp397
(I1
(I0
tg19
I00
S''
tbsg20
F20000
sg21
I1
sbsg8
(g10
S'`\x00\x00\x00\x00\x00\x00\x00'
tRp398
g1
(g12
g3
NtRp399
(dp400
g15
g16
(g17
(I0
tS'b'
tRp401
(I1
(I0
tg19
I00
S''
tbsg20
F20000
sg21
I1
sbsg8
(g10
S'a\x00\x00\x00\x00\x00\x00\x00'
tRp402
g1
(g12
g3
NtRp403
(dp404
g15
g16
(g17
(I0
tS'b'
tRp405
(I1
(I0
tg19
I00
S''
tbsg20
F20000
sg21
I1
sbsg8
(g10
S'b\x00\x00\x00\x00\x00\x00\x00'
tRp406
g1
(g12
g3
NtRp407
(dp408
g15
g16
(g17
(I0
tS'b'
tRp409
(I1
(I0
tg19
I00
S''
tbsg20
F20000
sg21
I1
sbsg8
(g10
S'c\x00\x00\x00\x00\x00\x00\x00'
tRp410
g1
(g12
g3
NtRp411
(dp412
g15
g16
(g17
(I0
tS'b'
tRp413
(I1
(I0
tg19
I00
S''
tbsg20
F20000
sg21
I1
sbsg8
(g10
S'd\x00\x00\x00\x00\x00\x00\x00'
tRp414
g1
(g12
g3
NtRp415
(dp416
g15
g16
(g17
(I0
tS'b'
tRp417
(I1
(I0
tg19
I00
S''
tbsg20
F20000
sg21
I1
sbsg8
(g10
S'e\x00\x00\x00\x00\x00\x00\x00'
tRp418
g1
(g12
g3
NtRp419
(dp420
g15
g16
(g17
(I0
tS'b'
tRp421
(I1
(I0
tg19
I00
S''
tbsg20
F20000
sg21
I1
sbsg8
(g19
S'\x00\x00\xccB'
tRp422
g1
(g12
g3
NtRp423
(dp424
g15
g16
(g17
(I0
tS'b'
tRp425
(I1
(I4
tg19
I00
S'f\x96\x10F\x9asmF\x9a\xa4\x88F\x9a1\x94F'
tbsg20
F20000
sg21
I1
sbsg8
(g10
S'g\x00\x00\x00\x00\x00\x00\x00'
tRp426
g1
(g12
g3
NtRp427
(dp428
g15
g16
(g17
(I0
tS'b'
tRp429
(I1
(I0
tg19
I00
S''
tbsg20
F20000
sg21
I1
sbsg8
(g10
S'h\x00\x00\x00\x00\x00\x00\x00'
tRp430
g1
(g12
g3
NtRp431
(dp432
g15
g16
(g17
(I0
tS'b'
tRp433
(I1
(I0
tg19
I00
S''
tbsg20
F20000
sg21
I1
sbsg8
(g10
S'i\x00\x00\x00\x00\x00\x00\x00'
tRp434
g1
(g12
g3
NtRp435
(dp436
g15
g16
(g17
(I0
tS'b'
tRp437
(I1
(I0
tg19
I00
S''
tbsg20
F20000
sg21
I1
sbsg8
(g10
S'j\x00\x00\x00\x00\x00\x00\x00'
tRp438
g1
(g12
g3
NtRp439
(dp440
g15
g16
(g17
(I0
tS'b'
tRp441
(I1
(I0
tg19
I00
S''
tbsg20
F20000
sg21
I1
sbsg8
(g10
S'k\x00\x00\x00\x00\x00\x00\x00'
tRp442
g1
(g12
g3
NtRp443
(dp444
g15
g16
(g17
(I0
tS'b'
tRp445
(I1
(I0
tg19
I00
S''
tbsg20
F20000
sg21
I1
sbsg8
(g10
S'l\x00\x00\x00\x00\x00\x00\x00'
tRp446
g1
(g12
g3
NtRp447
(dp448
g15
g16
(g17
(I0
tS'b'
tRp449
(I1
(I0
tg19
I00
S''
tbsg20
F20000
sg21
I1
sbsg8
(g10
S'm\x00\x00\x00\x00\x00\x00\x00'
tRp450
g1
(g12
g3
NtRp451
(dp452
g15
g16
(g17
(I0
tS'b'
tRp453
(I1
(I0
tg19
I00
S''
tbsg20
F20000
sg21
I1
sbsg8
(g19
S'\x00\x00\xdcB'
tRp454
g1
(g12
g3
NtRp455
(dp456
g15
g16
(g17
(I0
tS'b'
tRp457
(I1
(I4
tg19
I00
S'\xcd\xec?E\xcd\xd4\xa5E\x00d\xbfE\x9a\xf1\xdfE'
tbsg20
F20000
sg21
I1
sbsg8
(g10
S'o\x00\x00\x00\x00\x00\x00\x00'
tRp458
g1
(g12
g3
NtRp459
(dp460
g15
g16
(g17
(I0
tS'b'
tRp461
(I1
(I0
tg19
I00
S''
tbsg20
F20000
sg21
I1
sbsg8
(g10
S'p\x00\x00\x00\x00\x00\x00\x00'
tRp462
g1
(g12
g3
NtRp463
(dp464
g15
g16
(g17
(I0
tS'b'
tRp465
(I1
(I0
tg19
I00
S''
tbsg20
F20000
sg21
I1
sbsg8
(g10
S'q\x00\x00\x00\x00\x00\x00\x00'
tRp466
g1
(g12
g3
NtRp467
(dp468
g15
g16
(g17
(I0
tS'b'
tRp469
(I1
(I0
tg19
I00
S''
tbsg20
F20000
sg21
I1
sbsg8
(g10
S'r\x00\x00\x00\x00\x00\x00\x00'
tRp470
g1
(g12
g3
NtRp471
(dp472
g15
g16
(g17
(I0
tS'b'
tRp473
(I1
(I0
tg19
I00
S''
tbsg20
F20000
sg21
I1
sbsg8
(g10
S's\x00\x00\x00\x00\x00\x00\x00'
tRp474
g1
(g12
g3
NtRp475
(dp476
g15
g16
(g17
(I0
tS'b'
tRp477
(I1
(I0
tg19
I00
S''
tbsg20
F20000
sg21
I1
sbsg8
(g10
S't\x00\x00\x00\x00\x00\x00\x00'
tRp478
g1
(g12
g3
NtRp479
(dp480
g15
g16
(g17
(I0
tS'b'
tRp481
(I1
(I0
tg19
I00
S''
tbsg20
F20000
sg21
I1
sbsg8
(g10
S'u\x00\x00\x00\x00\x00\x00\x00'
tRp482
g1
(g12
g3
NtRp483
(dp484
g15
g16
(g17
(I0
tS'b'
tRp485
(I1
(I0
tg19
I00
S''
tbsg20
F20000
sg21
I1
sbsg8
(g19
S'\x00\x00\xecB'
tRp486
g1
(g12
g3
NtRp487
(dp488
g15
g16
(g17
(I0
tS'b'
tRp489
(I1
(I3
tg19
I00
S'fVhF\x00\xee\x98F\xcd\xeb\x9aF'
tbsg20
F20000
sg21
I1
sbsg8
(g10
S'w\x00\x00\x00\x00\x00\x00\x00'
tRp490
g1
(g12
g3
NtRp491
(dp492
g15
g16
(g17
(I0
tS'b'
tRp493
(I1
(I0
tg19
I00
S''
tbsg20
F20000
sg21
I1
sbsg8
(g10
S'x\x00\x00\x00\x00\x00\x00\x00'
tRp494
g1
(g12
g3
NtRp495
(dp496
g15
g16
(g17
(I0
tS'b'
tRp497
(I1
(I0
tg19
I00
S''
tbsg20
F20000
sg21
I1
sbsg8
(g10
S'y\x00\x00\x00\x00\x00\x00\x00'
tRp498
g1
(g12
g3
NtRp499
(dp500
g15
g16
(g17
(I0
tS'b'
tRp501
(I1
(I0
tg19
I00
S''
tbsg20
F20000
sg21
I1
sbsg8
(g10
S'z\x00\x00\x00\x00\x00\x00\x00'
tRp502
g1
(g12
g3
NtRp503
(dp504
g15
g16
(g17
(I0
tS'b'
tRp505
(I1
(I0
tg19
I00
S''
tbsg20
F20000
sg21
I1
sbsg8
(g10
S'{\x00\x00\x00\x00\x00\x00\x00'
tRp506
g1
(g12
g3
NtRp507
(dp508
g15
g16
(g17
(I0
tS'b'
tRp509
(I1
(I0
tg19
I00
S''
tbsg20
F20000
sg21
I1
sbsg8
(g10
S'|\x00\x00\x00\x00\x00\x00\x00'
tRp510
g1
(g12
g3
NtRp511
(dp512
g15
g16
(g17
(I0
tS'b'
tRp513
(I1
(I0
tg19
I00
S''
tbsg20
F20000
sg21
I1
sbsg8
(g10
S'}\x00\x00\x00\x00\x00\x00\x00'
tRp514
g1
(g12
g3
NtRp515
(dp516
g15
g16
(g17
(I0
tS'b'
tRp517
(I1
(I0
tg19
I00
S''
tbsg20
F20000
sg21
I1
sbsg8
(g19
S'\x00\x00\xfcB'
tRp518
g1
(g12
g3
NtRp519
(dp520
g15
g16
(g17
(I0
tS'b'
tRp521
(I1
(I2
tg19
I00
S'\x00\x12 F\x00\xdeHF'
tbsg20
F20000
sg21
I1
sbsg8
(g10
S'\x7f\x00\x00\x00\x00\x00\x00\x00'
tRp522
g1
(g12
g3
NtRp523
(dp524
g15
g16
(g17
(I0
tS'b'
tRp525
(I1
(I0
tg19
I00
S''
tbsg20
F20000
sg21
I1
sbsg8
(g10
S'\x80\x00\x00\x00\x00\x00\x00\x00'
tRp526
g1
(g12
g3
NtRp527
(dp528
g15
g16
(g17
(I0
tS'b'
tRp529
(I1
(I0
tg19
I00
S''
tbsg20
F20000
sg21
I1
sbsg8
(g10
S'\x81\x00\x00\x00\x00\x00\x00\x00'
tRp530
g1
(g12
g3
NtRp531
(dp532
g15
g16
(g17
(I0
tS'b'
tRp533
(I1
(I0
tg19
I00
S''
tbsg20
F20000
sg21
I1
sbsg8
(g10
S'\x82\x00\x00\x00\x00\x00\x00\x00'
tRp534
g1
(g12
g3
NtRp535
(dp536
g15
g16
(g17
(I0
tS'b'
tRp537
(I1
(I0
tg19
I00
S''
tbsg20
F20000
sg21
I1
sbsg8
(g10
S'\x83\x00\x00\x00\x00\x00\x00\x00'
tRp538
g1
(g12
g3
NtRp539
(dp540
g15
g16
(g17
(I0
tS'b'
tRp541
(I1
(I0
tg19
I00
S''
tbsg20
F20000
sg21
I1
sbsg8
(g10
S'\x84\x00\x00\x00\x00\x00\x00\x00'
tRp542
g1
(g12
g3
NtRp543
(dp544
g15
g16
(g17
(I0
tS'b'
tRp545
(I1
(I0
tg19
I00
S''
tbsg20
F20000
sg21
I1
sbsg8
(g10
S'\x85\x00\x00\x00\x00\x00\x00\x00'
tRp546
g1
(g12
g3
NtRp547
(dp548
g15
g16
(g17
(I0
tS'b'
tRp549
(I1
(I0
tg19
I00
S''
tbsg20
F20000
sg21
I1
sbsg8
(g19
S'\x00\x00\x06C'
tRp550
g1
(g12
g3
NtRp551
(dp552
g15
g16
(g17
(I0
tS'b'
tRp553
(I1
(I3
tg19
I00
S'\x9a\xf1XE\xcd\xf62F3\x05HF'
tbsg20
F20000
sg21
I1
sbsg8
(g10
S'\x87\x00\x00\x00\x00\x00\x00\x00'
tRp554
g1
(g12
g3
NtRp555
(dp556
g15
g16
(g17
(I0
tS'b'
tRp557
(I1
(I0
tg19
I00
S''
tbsg20
F20000
sg21
I1
sbsg8
(g10
S'\x88\x00\x00\x00\x00\x00\x00\x00'
tRp558
g1
(g12
g3
NtRp559
(dp560
g15
g16
(g17
(I0
tS'b'
tRp561
(I1
(I0
tg19
I00
S''
tbsg20
F20000
sg21
I1
sbsg8
(g10
S'\x89\x00\x00\x00\x00\x00\x00\x00'
tRp562
g1
(g12
g3
NtRp563
(dp564
g15
g16
(g17
(I0
tS'b'
tRp565
(I1
(I0
tg19
I00
S''
tbsg20
F20000
sg21
I1
sbsg8
(g10
S'\x8a\x00\x00\x00\x00\x00\x00\x00'
tRp566
g1
(g12
g3
NtRp567
(dp568
g15
g16
(g17
(I0
tS'b'
tRp569
(I1
(I0
tg19
I00
S''
tbsg20
F20000
sg21
I1
sbsg8
(g10
S'\x8b\x00\x00\x00\x00\x00\x00\x00'
tRp570
g1
(g12
g3
NtRp571
(dp572
g15
g16
(g17
(I0
tS'b'
tRp573
(I1
(I0
tg19
I00
S''
tbsg20
F20000
sg21
I1
sbsg8
(g10
S'\x8c\x00\x00\x00\x00\x00\x00\x00'
tRp574
g1
(g12
g3
NtRp575
(dp576
g15
g16
(g17
(I0
tS'b'
tRp577
(I1
(I0
tg19
I00
S''
tbsg20
F20000
sg21
I1
sbsg8
(g10
S'\x8d\x00\x00\x00\x00\x00\x00\x00'
tRp578
g1
(g12
g3
NtRp579
(dp580
g15
g16
(g17
(I0
tS'b'
tRp581
(I1
(I0
tg19
I00
S''
tbsg20
F20000
sg21
I1
sbsg8
(g19
S'\x00\x00\x0eC'
tRp582
g1
(g12
g3
NtRp583
(dp584
g15
g16
(g17
(I0
tS'b'
tRp585
(I1
(I3
tg19
I00
S'\x9aO\rF3I#F\x00\xaa^F'
tbsg20
F20000
sg21
I1
sbsg8
(g10
S'\x8f\x00\x00\x00\x00\x00\x00\x00'
tRp586
g1
(g12
g3
NtRp587
(dp588
g15
g16
(g17
(I0
tS'b'
tRp589
(I1
(I0
tg19
I00
S''
tbsg20
F20000
sg21
I1
sbsg8
(g10
S'\x90\x00\x00\x00\x00\x00\x00\x00'
tRp590
g1
(g12
g3
NtRp591
(dp592
g15
g16
(g17
(I0
tS'b'
tRp593
(I1
(I0
tg19
I00
S''
tbsg20
F20000
sg21
I1
sbsg8
(g10
S'\x91\x00\x00\x00\x00\x00\x00\x00'
tRp594
g1
(g12
g3
NtRp595
(dp596
g15
g16
(g17
(I0
tS'b'
tRp597
(I1
(I0
tg19
I00
S''
tbsg20
F20000
sg21
I1
sbsg8
(g10
S'\x92\x00\x00\x00\x00\x00\x00\x00'
tRp598
g1
(g12
g3
NtRp599
(dp600
g15
g16
(g17
(I0
tS'b'
tRp601
(I1
(I0
tg19
I00
S''
tbsg20
F20000
sg21
I1
sbsg8
(g10
S'\x93\x00\x00\x00\x00\x00\x00\x00'
tRp602
g1
(g12
g3
NtRp603
(dp604
g15
g16
(g17
(I0
tS'b'
tRp605
(I1
(I0
tg19
I00
S''
tbsg20
F20000
sg21
I1
sbsg8
(g10
S'\x94\x00\x00\x00\x00\x00\x00\x00'
tRp606
g1
(g12
g3
NtRp607
(dp608
g15
g16
(g17
(I0
tS'b'
tRp609
(I1
(I0
tg19
I00
S''
tbsg20
F20000
sg21
I1
sbsg8
(g10
S'\x95\x00\x00\x00\x00\x00\x00\x00'
tRp610
g1
(g12
g3
NtRp611
(dp612
g15
g16
(g17
(I0
tS'b'
tRp613
(I1
(I0
tg19
I00
S''
tbsg20
F20000
sg21
I1
sbsg8
(g19
S'\x00\x00\x16C'
tRp614
g1
(g12
g3
NtRp615
(dp616
g15
g16
(g17
(I0
tS'b'
tRp617
(I1
(I2
tg19
I00
S'f\xde3E3\x01\x91F'
tbsg20
F20000
sg21
I1
sbsg8
(g10
S'\x97\x00\x00\x00\x00\x00\x00\x00'
tRp618
g1
(g12
g3
NtRp619
(dp620
g15
g16
(g17
(I0
tS'b'
tRp621
(I1
(I0
tg19
I00
S''
tbsg20
F20000
sg21
I1
sbsg8
(g10
S'\x98\x00\x00\x00\x00\x00\x00\x00'
tRp622
g1
(g12
g3
NtRp623
(dp624
g15
g16
(g17
(I0
tS'b'
tRp625
(I1
(I0
tg19
I00
S''
tbsg20
F20000
sg21
I1
sbsg8
(g10
S'\x99\x00\x00\x00\x00\x00\x00\x00'
tRp626
g1
(g12
g3
NtRp627
(dp628
g15
g16
(g17
(I0
tS'b'
tRp629
(I1
(I0
tg19
I00
S''
tbsg20
F20000
sg21
I1
sbsg8
(g10
S'\x9a\x00\x00\x00\x00\x00\x00\x00'
tRp630
g1
(g12
g3
NtRp631
(dp632
g15
g16
(g17
(I0
tS'b'
tRp633
(I1
(I0
tg19
I00
S''
tbsg20
F20000
sg21
I1
sbsg8
(g10
S'\x9b\x00\x00\x00\x00\x00\x00\x00'
tRp634
g1
(g12
g3
NtRp635
(dp636
g15
g16
(g17
(I0
tS'b'
tRp637
(I1
(I0
tg19
I00
S''
tbsg20
F20000
sg21
I1
sbsg8
(g10
S'\x9c\x00\x00\x00\x00\x00\x00\x00'
tRp638
g1
(g12
g3
NtRp639
(dp640
g15
g16
(g17
(I0
tS'b'
tRp641
(I1
(I0
tg19
I00
S''
tbsg20
F20000
sg21
I1
sbsg8
(g10
S'\x9d\x00\x00\x00\x00\x00\x00\x00'
tRp642
g1
(g12
g3
NtRp643
(dp644
g15
g16
(g17
(I0
tS'b'
tRp645
(I1
(I0
tg19
I00
S''
tbsg20
F20000
sg21
I1
sbsg8
(g19
S'\x00\x00\x1eC'
tRp646
g1
(g12
g3
NtRp647
(dp648
g15
g16
(g17
(I0
tS'b'
tRp649
(I1
(I2
tg19
I00
S'\x9a\x913E3K\x92F'
tbsg20
F20000
sg21
I1
sbsg8
(g10
S'\x9f\x00\x00\x00\x00\x00\x00\x00'
tRp650
g1
(g12
g3
NtRp651
(dp652
g15
g16
(g17
(I0
tS'b'
tRp653
(I1
(I0
tg19
I00
S''
tbsg20
F20000
sg21
I1
sbsg8
(g10
S'\xa0\x00\x00\x00\x00\x00\x00\x00'
tRp654
g1
(g12
g3
NtRp655
(dp656
g15
g16
(g17
(I0
tS'b'
tRp657
(I1
(I0
tg19
I00
S''
tbsg20
F20000
sg21
I1
sbsg8
(g10
S'\xa1\x00\x00\x00\x00\x00\x00\x00'
tRp658
g1
(g12
g3
NtRp659
(dp660
g15
g16
(g17
(I0
tS'b'
tRp661
(I1
(I0
tg19
I00
S''
tbsg20
F20000
sg21
I1
sbsg8
(g10
S'\xa2\x00\x00\x00\x00\x00\x00\x00'
tRp662
g1
(g12
g3
NtRp663
(dp664
g15
g16
(g17
(I0
tS'b'
tRp665
(I1
(I0
tg19
I00
S''
tbsg20
F20000
sg21
I1
sbsg8
(g10
S'\xa3\x00\x00\x00\x00\x00\x00\x00'
tRp666
g1
(g12
g3
NtRp667
(dp668
g15
g16
(g17
(I0
tS'b'
tRp669
(I1
(I0
tg19
I00
S''
tbsg20
F20000
sg21
I1
sbsg8
(g10
S'\xa4\x00\x00\x00\x00\x00\x00\x00'
tRp670
g1
(g12
g3
NtRp671
(dp672
g15
g16
(g17
(I0
tS'b'
tRp673
(I1
(I0
tg19
I00
S''
tbsg20
F20000
sg21
I1
sbsg8
(g10
S'\xa5\x00\x00\x00\x00\x00\x00\x00'
tRp674
g1
(g12
g3
NtRp675
(dp676
g15
g16
(g17
(I0
tS'b'
tRp677
(I1
(I0
tg19
I00
S''
tbsg20
F20000
sg21
I1
sbsg8
(g10
S'\xa6\x00\x00\x00\x00\x00\x00\x00'
tRp678
g1
(g12
g3
NtRp679
(dp680
g15
g16
(g17
(I0
tS'b'
tRp681
(I1
(I0
tg19
I00
S''
tbsg20
F20000
sg21
I1
sbsg8
(g10
S'\xa7\x00\x00\x00\x00\x00\x00\x00'
tRp682
g1
(g12
g3
NtRp683
(dp684
g15
g16
(g17
(I0
tS'b'
tRp685
(I1
(I0
tg19
I00
S''
tbsg20
F20000
sg21
I1
sbsg8
(g10
S'\xa8\x00\x00\x00\x00\x00\x00\x00'
tRp686
g1
(g12
g3
NtRp687
(dp688
g15
g16
(g17
(I0
tS'b'
tRp689
(I1
(I0
tg19
I00
S''
tbsg20
F20000
sg21
I1
sbsg8
(g10
S'\xa9\x00\x00\x00\x00\x00\x00\x00'
tRp690
g1
(g12
g3
NtRp691
(dp692
g15
g16
(g17
(I0
tS'b'
tRp693
(I1
(I0
tg19
I00
S''
tbsg20
F20000
sg21
I1
sbsg8
(g10
S'\xaa\x00\x00\x00\x00\x00\x00\x00'
tRp694
g1
(g12
g3
NtRp695
(dp696
g15
g16
(g17
(I0
tS'b'
tRp697
(I1
(I0
tg19
I00
S''
tbsg20
F20000
sg21
I1
sbsg8
(g10
S'\xab\x00\x00\x00\x00\x00\x00\x00'
tRp698
g1
(g12
g3
NtRp699
(dp700
g15
g16
(g17
(I0
tS'b'
tRp701
(I1
(I0
tg19
I00
S''
tbsg20
F20000
sg21
I1
sbsg8
(g10
S'\xac\x00\x00\x00\x00\x00\x00\x00'
tRp702
g1
(g12
g3
NtRp703
(dp704
g15
g16
(g17
(I0
tS'b'
tRp705
(I1
(I0
tg19
I00
S''
tbsg20
F20000
sg21
I1
sbsg8
(g10
S'\xad\x00\x00\x00\x00\x00\x00\x00'
tRp706
g1
(g12
g3
NtRp707
(dp708
g15
g16
(g17
(I0
tS'b'
tRp709
(I1
(I0
tg19
I00
S''
tbsg20
F20000
sg21
I1
sbsg8
(g19
S'\x00\x00.C'
tRp710
g1
(g12
g3
NtRp711
(dp712
g15
g16
(g17
(I0
tS'b'
tRp713
(I1
(I4
tg19
I00
S'\xcd<\xdeE\xcd<9F\xcd\xbczF\xcd^\x85F'
tbsg20
F20000
sg21
I1
sbsg8
(g10
S'\xaf\x00\x00\x00\x00\x00\x00\x00'
tRp714
g1
(g12
g3
NtRp715
(dp716
g15
g16
(g17
(I0
tS'b'
tRp717
(I1
(I0
tg19
I00
S''
tbsg20
F20000
sg21
I1
sbsg8
(g10
S'\xb0\x00\x00\x00\x00\x00\x00\x00'
tRp718
g1
(g12
g3
NtRp719
(dp720
g15
g16
(g17
(I0
tS'b'
tRp721
(I1
(I0
tg19
I00
S''
tbsg20
F20000
sg21
I1
sbsg8
(g10
S'\xb1\x00\x00\x00\x00\x00\x00\x00'
tRp722
g1
(g12
g3
NtRp723
(dp724
g15
g16
(g17
(I0
tS'b'
tRp725
(I1
(I0
tg19
I00
S''
tbsg20
F20000
sg21
I1
sbsg8
(g10
S'\xb2\x00\x00\x00\x00\x00\x00\x00'
tRp726
g1
(g12
g3
NtRp727
(dp728
g15
g16
(g17
(I0
tS'b'
tRp729
(I1
(I0
tg19
I00
S''
tbsg20
F20000
sg21
I1
sbsg8
(g10
S'\xb3\x00\x00\x00\x00\x00\x00\x00'
tRp730
g1
(g12
g3
NtRp731
(dp732
g15
g16
(g17
(I0
tS'b'
tRp733
(I1
(I0
tg19
I00
S''
tbsg20
F20000
sg21
I1
sbsg8
(g10
S'\xb4\x00\x00\x00\x00\x00\x00\x00'
tRp734
g1
(g12
g3
NtRp735
(dp736
g15
g16
(g17
(I0
tS'b'
tRp737
(I1
(I0
tg19
I00
S''
tbsg20
F20000
sg21
I1
sbsg8
(g10
S'\xb5\x00\x00\x00\x00\x00\x00\x00'
tRp738
g1
(g12
g3
NtRp739
(dp740
g15
g16
(g17
(I0
tS'b'
tRp741
(I1
(I0
tg19
I00
S''
tbsg20
F20000
sg21
I1
sbsg8
(g19
S'\x00\x006C'
tRp742
g1
(g12
g3
NtRp743
(dp744
g15
g16
(g17
(I0
tS'b'
tRp745
(I1
(I2
tg19
I00
S'\x9a]NF\xcd\x87\x83F'
tbsg20
F20000
sg21
I1
sbsg8
(g10
S'\xb7\x00\x00\x00\x00\x00\x00\x00'
tRp746
g1
(g12
g3
NtRp747
(dp748
g15
g16
(g17
(I0
tS'b'
tRp749
(I1
(I0
tg19
I00
S''
tbsg20
F20000
sg21
I1
sbsg8
(g10
S'\xb8\x00\x00\x00\x00\x00\x00\x00'
tRp750
g1
(g12
g3
NtRp751
(dp752
g15
g16
(g17
(I0
tS'b'
tRp753
(I1
(I0
tg19
I00
S''
tbsg20
F20000
sg21
I1
sbsg8
(g10
S'\xb9\x00\x00\x00\x00\x00\x00\x00'
tRp754
g1
(g12
g3
NtRp755
(dp756
g15
g16
(g17
(I0
tS'b'
tRp757
(I1
(I0
tg19
I00
S''
tbsg20
F20000
sg21
I1
sbsg8
(g10
S'\xba\x00\x00\x00\x00\x00\x00\x00'
tRp758
g1
(g12
g3
NtRp759
(dp760
g15
g16
(g17
(I0
tS'b'
tRp761
(I1
(I0
tg19
I00
S''
tbsg20
F20000
sg21
I1
sbsg8
(g10
S'\xbb\x00\x00\x00\x00\x00\x00\x00'
tRp762
g1
(g12
g3
NtRp763
(dp764
g15
g16
(g17
(I0
tS'b'
tRp765
(I1
(I0
tg19
I00
S''
tbsg20
F20000
sg21
I1
sbsg8
(g10
S'\xbc\x00\x00\x00\x00\x00\x00\x00'
tRp766
g1
(g12
g3
NtRp767
(dp768
g15
g16
(g17
(I0
tS'b'
tRp769
(I1
(I0
tg19
I00
S''
tbsg20
F20000
sg21
I1
sbsg8
(g10
S'\xbd\x00\x00\x00\x00\x00\x00\x00'
tRp770
g1
(g12
g3
NtRp771
(dp772
g15
g16
(g17
(I0
tS'b'
tRp773
(I1
(I0
tg19
I00
S''
tbsg20
F20000
sg21
I1
sbsg8
(g19
S'\x00\x00>C'
tRp774
g1
(g12
g3
NtRp775
(dp776
g15
g16
(g17
(I0
tS'b'
tRp777
(I1
(I6
tg19
I00
S'f\x1e1Eff\x81Ef\x86$F\x00F@F\x9a\xd7\x80Ffp\x88F'
tbsg20
F20000
sg21
I1
sbsg8
(g10
S'\xbf\x00\x00\x00\x00\x00\x00\x00'
tRp778
g1
(g12
g3
NtRp779
(dp780
g15
g16
(g17
(I0
tS'b'
tRp781
(I1
(I0
tg19
I00
S''
tbsg20
F20000
sg21
I1
sbsg8
(g10
S'\xc0\x00\x00\x00\x00\x00\x00\x00'
tRp782
g1
(g12
g3
NtRp783
(dp784
g15
g16
(g17
(I0
tS'b'
tRp785
(I1
(I0
tg19
I00
S''
tbsg20
F20000
sg21
I1
sbsg8
(g10
S'\xc1\x00\x00\x00\x00\x00\x00\x00'
tRp786
g1
(g12
g3
NtRp787
(dp788
g15
g16
(g17
(I0
tS'b'
tRp789
(I1
(I0
tg19
I00
S''
tbsg20
F20000
sg21
I1
sbsg8
(g10
S'\xc2\x00\x00\x00\x00\x00\x00\x00'
tRp790
g1
(g12
g3
NtRp791
(dp792
g15
g16
(g17
(I0
tS'b'
tRp793
(I1
(I0
tg19
I00
S''
tbsg20
F20000
sg21
I1
sbsg8
(g10
S'\xc3\x00\x00\x00\x00\x00\x00\x00'
tRp794
g1
(g12
g3
NtRp795
(dp796
g15
g16
(g17
(I0
tS'b'
tRp797
(I1
(I0
tg19
I00
S''
tbsg20
F20000
sg21
I1
sbsg8
(g10
S'\xc4\x00\x00\x00\x00\x00\x00\x00'
tRp798
g1
(g12
g3
NtRp799
(dp800
g15
g16
(g17
(I0
tS'b'
tRp801
(I1
(I0
tg19
I00
S''
tbsg20
F20000
sg21
I1
sbsg8
(g10
S'\xc5\x00\x00\x00\x00\x00\x00\x00'
tRp802
g1
(g12
g3
NtRp803
(dp804
g15
g16
(g17
(I0
tS'b'
tRp805
(I1
(I0
tg19
I00
S''
tbsg20
F20000
sg21
I1
sbsg8
(g19
S'\x00\x00FC'
tRp806
g1
(g12
g3
NtRp807
(dp808
g15
g16
(g17
(I0
tS'b'
tRp809
(I1
(I3
tg19
I00
S'3#rF\x00)\x86Ff\x08\x98F'
tbsg20
F20000
sg21
I1
sbsg8
(g10
S'\xc7\x00\x00\x00\x00\x00\x00\x00'
tRp810
g1
(g12
g3
NtRp811
(dp812
g15
g16
(g17
(I0
tS'b'
tRp813
(I1
(I0
tg19
I00
S''
tbsg20
F20000
sg21
I1
sbsg8
(g10
S'\xc8\x00\x00\x00\x00\x00\x00\x00'
tRp814
g1
(g12
g3
NtRp815
(dp816
g15
g16
(g17
(I0
tS'b'
tRp817
(I1
(I0
tg19
I00
S''
tbsg20
F20000
sg21
I1
sbsg8
(g10
S'\xc9\x00\x00\x00\x00\x00\x00\x00'
tRp818
g1
(g12
g3
NtRp819
(dp820
g15
g16
(g17
(I0
tS'b'
tRp821
(I1
(I0
tg19
I00
S''
tbsg20
F20000
sg21
I1
sbsg8
(g10
S'\xca\x00\x00\x00\x00\x00\x00\x00'
tRp822
g1
(g12
g3
NtRp823
(dp824
g15
g16
(g17
(I0
tS'b'
tRp825
(I1
(I0
tg19
I00
S''
tbsg20
F20000
sg21
I1
sbsg8
(g10
S'\xcb\x00\x00\x00\x00\x00\x00\x00'
tRp826
g1
(g12
g3
NtRp827
(dp828
g15
g16
(g17
(I0
tS'b'
tRp829
(I1
(I0
tg19
I00
S''
tbsg20
F20000
sg21
I1
sbsg8
(g10
S'\xcc\x00\x00\x00\x00\x00\x00\x00'
tRp830
g1
(g12
g3
NtRp831
(dp832
g15
g16
(g17
(I0
tS'b'
tRp833
(I1
(I0
tg19
I00
S''
tbsg20
F20000
sg21
I1
sbsg8
(g10
S'\xcd\x00\x00\x00\x00\x00\x00\x00'
tRp834
g1
(g12
g3
NtRp835
(dp836
g15
g16
(g17
(I0
tS'b'
tRp837
(I1
(I0
tg19
I00
S''
tbsg20
F20000
sg21
I1
sbsg8
(g19
S'\x00\x00NC'
tRp838
g1
(g12
g3
NtRp839
(dp840
g15
g16
(g17
(I0
tS'b'
tRp841
(I1
(I1
tg19
I00
S'\xcd*rF'
tbsg20
F20000
sg21
I1
sbsg8
(g10
S'\xcf\x00\x00\x00\x00\x00\x00\x00'
tRp842
g1
(g12
g3
NtRp843
(dp844
g15
g16
(g17
(I0
tS'b'
tRp845
(I1
(I0
tg19
I00
S''
tbsg20
F20000
sg21
I1
sbsg8
(g10
S'\xd0\x00\x00\x00\x00\x00\x00\x00'
tRp846
g1
(g12
g3
NtRp847
(dp848
g15
g16
(g17
(I0
tS'b'
tRp849
(I1
(I0
tg19
I00
S''
tbsg20
F20000
sg21
I1
sbsg8
(g10
S'\xd1\x00\x00\x00\x00\x00\x00\x00'
tRp850
g1
(g12
g3
NtRp851
(dp852
g15
g16
(g17
(I0
tS'b'
tRp853
(I1
(I0
tg19
I00
S''
tbsg20
F20000
sg21
I1
sbsg8
(g10
S'\xd2\x00\x00\x00\x00\x00\x00\x00'
tRp854
g1
(g12
g3
NtRp855
(dp856
g15
g16
(g17
(I0
tS'b'
tRp857
(I1
(I0
tg19
I00
S''
tbsg20
F20000
sg21
I1
sbsg8
(g10
S'\xd3\x00\x00\x00\x00\x00\x00\x00'
tRp858
g1
(g12
g3
NtRp859
(dp860
g15
g16
(g17
(I0
tS'b'
tRp861
(I1
(I0
tg19
I00
S''
tbsg20
F20000
sg21
I1
sbsg8
(g10
S'\xd4\x00\x00\x00\x00\x00\x00\x00'
tRp862
g1
(g12
g3
NtRp863
(dp864
g15
g16
(g17
(I0
tS'b'
tRp865
(I1
(I0
tg19
I00
S''
tbsg20
F20000
sg21
I1
sbsg8
(g10
S'\xd5\x00\x00\x00\x00\x00\x00\x00'
tRp866
g1
(g12
g3
NtRp867
(dp868
g15
g16
(g17
(I0
tS'b'
tRp869
(I1
(I0
tg19
I00
S''
tbsg20
F20000
sg21
I1
sbsg8
(g19
S'\x00\x00VC'
tRp870
g1
(g12
g3
NtRp871
(dp872
g15
g16
(g17
(I0
tS'b'
tRp873
(I1
(I1
tg19
I00
S'3\x99\x1bF'
tbsg20
F20000
sg21
I1
sbsg8
(g10
S'\xd7\x00\x00\x00\x00\x00\x00\x00'
tRp874
g1
(g12
g3
NtRp875
(dp876
g15
g16
(g17
(I0
tS'b'
tRp877
(I1
(I0
tg19
I00
S''
tbsg20
F20000
sg21
I1
sbsg8
(g10
S'\xd8\x00\x00\x00\x00\x00\x00\x00'
tRp878
g1
(g12
g3
NtRp879
(dp880
g15
g16
(g17
(I0
tS'b'
tRp881
(I1
(I0
tg19
I00
S''
tbsg20
F20000
sg21
I1
sbsg8
(g10
S'\xd9\x00\x00\x00\x00\x00\x00\x00'
tRp882
g1
(g12
g3
NtRp883
(dp884
g15
g16
(g17
(I0
tS'b'
tRp885
(I1
(I0
tg19
I00
S''
tbsg20
F20000
sg21
I1
sbsg8
(g10
S'\xda\x00\x00\x00\x00\x00\x00\x00'
tRp886
g1
(g12
g3
NtRp887
(dp888
g15
g16
(g17
(I0
tS'b'
tRp889
(I1
(I0
tg19
I00
S''
tbsg20
F20000
sg21
I1
sbsg8
(g10
S'\xdb\x00\x00\x00\x00\x00\x00\x00'
tRp890
g1
(g12
g3
NtRp891
(dp892
g15
g16
(g17
(I0
tS'b'
tRp893
(I1
(I0
tg19
I00
S''
tbsg20
F20000
sg21
I1
sbsg8
(g10
S'\xdc\x00\x00\x00\x00\x00\x00\x00'
tRp894
g1
(g12
g3
NtRp895
(dp896
g15
g16
(g17
(I0
tS'b'
tRp897
(I1
(I0
tg19
I00
S''
tbsg20
F20000
sg21
I1
sbsg8
(g10
S'\xdd\x00\x00\x00\x00\x00\x00\x00'
tRp898
g1
(g12
g3
NtRp899
(dp900
g15
g16
(g17
(I0
tS'b'
tRp901
(I1
(I0
tg19
I00
S''
tbsg20
F20000
sg21
I1
sbsg8
(g19
S'\x00\x00^C'
tRp902
g1
(g12
g3
NtRp903
(dp904
g15
g16
(g17
(I0
tS'b'
tRp905
(I1
(I3
tg19
I00
S'\xcd\xe45E\xcd<UE\x9ae=F'
tbsg20
F20000
sg21
I1
sbsg8
(g10
S'\xdf\x00\x00\x00\x00\x00\x00\x00'
tRp906
g1
(g12
g3
NtRp907
(dp908
g15
g16
(g17
(I0
tS'b'
tRp909
(I1
(I0
tg19
I00
S''
tbsg20
F20000
sg21
I1
sbsg8
(g10
S'\xe0\x00\x00\x00\x00\x00\x00\x00'
tRp910
g1
(g12
g3
NtRp911
(dp912
g15
g16
(g17
(I0
tS'b'
tRp913
(I1
(I0
tg19
I00
S''
tbsg20
F20000
sg21
I1
sbsg8
(g10
S'\xe1\x00\x00\x00\x00\x00\x00\x00'
tRp914
g1
(g12
g3
NtRp915
(dp916
g15
g16
(g17
(I0
tS'b'
tRp917
(I1
(I0
tg19
I00
S''
tbsg20
F20000
sg21
I1
sbsg8
(g10
S'\xe2\x00\x00\x00\x00\x00\x00\x00'
tRp918
g1
(g12
g3
NtRp919
(dp920
g15
g16
(g17
(I0
tS'b'
tRp921
(I1
(I0
tg19
I00
S''
tbsg20
F20000
sg21
I1
sbsg8
(g10
S'\xe3\x00\x00\x00\x00\x00\x00\x00'
tRp922
g1
(g12
g3
NtRp923
(dp924
g15
g16
(g17
(I0
tS'b'
tRp925
(I1
(I0
tg19
I00
S''
tbsg20
F20000
sg21
I1
sbsg8
(g10
S'\xe4\x00\x00\x00\x00\x00\x00\x00'
tRp926
g1
(g12
g3
NtRp927
(dp928
g15
g16
(g17
(I0
tS'b'
tRp929
(I1
(I0
tg19
I00
S''
tbsg20
F20000
sg21
I1
sbsg8
(g10
S'\xe5\x00\x00\x00\x00\x00\x00\x00'
tRp930
g1
(g12
g3
NtRp931
(dp932
g15
g16
(g17
(I0
tS'b'
tRp933
(I1
(I0
tg19
I00
S''
tbsg20
F20000
sg21
I1
sbsg8
(g19
S'\x00\x00fC'
tRp934
g1
(g12
g3
NtRp935
(dp936
g15
g16
(g17
(I0
tS'b'
tRp937
(I1
(I6
tg19
I00
S'3\x93\xd6Df\xb6\xf0D\xcd\x8c\x05F\x008GF3+SFfjmF'
tbsg20
F20000
sg21
I1
sbsg8
(g10
S'\xe7\x00\x00\x00\x00\x00\x00\x00'
tRp938
g1
(g12
g3
NtRp939
(dp940
g15
g16
(g17
(I0
tS'b'
tRp941
(I1
(I0
tg19
I00
S''
tbsg20
F20000
sg21
I1
sbsg8
(g10
S'\xe8\x00\x00\x00\x00\x00\x00\x00'
tRp942
g1
(g12
g3
NtRp943
(dp944
g15
g16
(g17
(I0
tS'b'
tRp945
(I1
(I0
tg19
I00
S''
tbsg20
F20000
sg21
I1
sbsg8
(g10
S'\xe9\x00\x00\x00\x00\x00\x00\x00'
tRp946
g1
(g12
g3
NtRp947
(dp948
g15
g16
(g17
(I0
tS'b'
tRp949
(I1
(I0
tg19
I00
S''
tbsg20
F20000
sg21
I1
sbsg8
(g10
S'\xea\x00\x00\x00\x00\x00\x00\x00'
tRp950
g1
(g12
g3
NtRp951
(dp952
g15
g16
(g17
(I0
tS'b'
tRp953
(I1
(I0
tg19
I00
S''
tbsg20
F20000
sg21
I1
sbsg8
(g10
S'\xeb\x00\x00\x00\x00\x00\x00\x00'
tRp954
g1
(g12
g3
NtRp955
(dp956
g15
g16
(g17
(I0
tS'b'
tRp957
(I1
(I0
tg19
I00
S''
tbsg20
F20000
sg21
I1
sbsg8
(g10
S'\xec\x00\x00\x00\x00\x00\x00\x00'
tRp958
g1
(g12
g3
NtRp959
(dp960
g15
g16
(g17
(I0
tS'b'
tRp961
(I1
(I0
tg19
I00
S''
tbsg20
F20000
sg21
I1
sbsg8
(g10
S'\xed\x00\x00\x00\x00\x00\x00\x00'
tRp962
g1
(g12
g3
NtRp963
(dp964
g15
g16
(g17
(I0
tS'b'
tRp965
(I1
(I0
tg19
I00
S''
tbsg20
F20000
sg21
I1
sbsg8
(g19
S'\x00\x00nC'
tRp966
g1
(g12
g3
NtRp967
(dp968
g15
g16
(g17
(I0
tS'b'
tRp969
(I1
(I5
tg19
I00
S'3\xc77F3gUF\xcd%\x85F\xcd\xf7\x88F3\x08\x95F'
tbsg20
F20000
sg21
I1
sbsg8
(g10
S'\xef\x00\x00\x00\x00\x00\x00\x00'
tRp970
g1
(g12
g3
NtRp971
(dp972
g15
g16
(g17
(I0
tS'b'
tRp973
(I1
(I0
tg19
I00
S''
tbsg20
F20000
sg21
I1
sbsg8
(g10
S'\xf0\x00\x00\x00\x00\x00\x00\x00'
tRp974
g1
(g12
g3
NtRp975
(dp976
g15
g16
(g17
(I0
tS'b'
tRp977
(I1
(I0
tg19
I00
S''
tbsg20
F20000
sg21
I1
sbsg8
(g10
S'\xf1\x00\x00\x00\x00\x00\x00\x00'
tRp978
g1
(g12
g3
NtRp979
(dp980
g15
g16
(g17
(I0
tS'b'
tRp981
(I1
(I0
tg19
I00
S''
tbsg20
F20000
sg21
I1
sbsg8
(g10
S'\xf2\x00\x00\x00\x00\x00\x00\x00'
tRp982
g1
(g12
g3
NtRp983
(dp984
g15
g16
(g17
(I0
tS'b'
tRp985
(I1
(I0
tg19
I00
S''
tbsg20
F20000
sg21
I1
sbsg8
(g10
S'\xf3\x00\x00\x00\x00\x00\x00\x00'
tRp986
g1
(g12
g3
NtRp987
(dp988
g15
g16
(g17
(I0
tS'b'
tRp989
(I1
(I0
tg19
I00
S''
tbsg20
F20000
sg21
I1
sbsg8
(g10
S'\xf4\x00\x00\x00\x00\x00\x00\x00'
tRp990
g1
(g12
g3
NtRp991
(dp992
g15
g16
(g17
(I0
tS'b'
tRp993
(I1
(I0
tg19
I00
S''
tbsg20
F20000
sg21
I1
sbsg8
(g10
S'\xf5\x00\x00\x00\x00\x00\x00\x00'
tRp994
g1
(g12
g3
NtRp995
(dp996
g15
g16
(g17
(I0
tS'b'
tRp997
(I1
(I0
tg19
I00
S''
tbsg20
F20000
sg21
I1
sbsg8
(g10
S'\xf6\x00\x00\x00\x00\x00\x00\x00'
tRp998
g1
(g12
g3
NtRp999
(dp1000
g15
g16
(g17
(I0
tS'b'
tRp1001
(I1
(I0
tg19
I00
S''
tbsg20
F20000
sg21
I1
sbsg8
(g10
S'\xf7\x00\x00\x00\x00\x00\x00\x00'
tRp1002
g1
(g12
g3
NtRp1003
(dp1004
g15
g16
(g17
(I0
tS'b'
tRp1005
(I1
(I0
tg19
I00
S''
tbsg20
F20000
sg21
I1
sbsg8
(g10
S'\xf8\x00\x00\x00\x00\x00\x00\x00'
tRp1006
g1
(g12
g3
NtRp1007
(dp1008
g15
g16
(g17
(I0
tS'b'
tRp1009
(I1
(I0
tg19
I00
S''
tbsg20
F20000
sg21
I1
sbsg8
(g10
S'\xf9\x00\x00\x00\x00\x00\x00\x00'
tRp1010
g1
(g12
g3
NtRp1011
(dp1012
g15
g16
(g17
(I0
tS'b'
tRp1013
(I1
(I0
tg19
I00
S''
tbsg20
F20000
sg21
I1
sbsg8
(g10
S'\xfa\x00\x00\x00\x00\x00\x00\x00'
tRp1014
g1
(g12
g3
NtRp1015
(dp1016
g15
g16
(g17
(I0
tS'b'
tRp1017
(I1
(I0
tg19
I00
S''
tbsg20
F20000
sg21
I1
sbsg8
(g10
S'\xfb\x00\x00\x00\x00\x00\x00\x00'
tRp1018
g1
(g12
g3
NtRp1019
(dp1020
g15
g16
(g17
(I0
tS'b'
tRp1021
(I1
(I0
tg19
I00
S''
tbsg20
F20000
sg21
I1
sbsg8
(g10
S'\xfc\x00\x00\x00\x00\x00\x00\x00'
tRp1022
g1
(g12
g3
NtRp1023
(dp1024
g15
g16
(g17
(I0
tS'b'
tRp1025
(I1
(I0
tg19
I00
S''
tbsg20
F20000
sg21
I1
sbsg8
(g10
S'\xfd\x00\x00\x00\x00\x00\x00\x00'
tRp1026
g1
(g12
g3
NtRp1027
(dp1028
g15
g16
(g17
(I0
tS'b'
tRp1029
(I1
(I0
tg19
I00
S''
tbsg20
F20000
sg21
I1
sbsg8
(g19
S'\x00\x00~C'
tRp1030
g1
(g12
g3
NtRp1031
(dp1032
g15
g16
(g17
(I0
tS'b'
tRp1033
(I1
(I1
tg19
I00
S'f\x92\xd5E'
tbsg20
F20000
sg21
I1
sbsg8
(g10
S'\xff\x00\x00\x00\x00\x00\x00\x00'
tRp1034
g1
(g12
g3
NtRp1035
(dp1036
g15
g16
(g17
(I0
tS'b'
tRp1037
(I1
(I0
tg19
I00
S''
tbsg20
F20000
sg21
I1
sbsg8
(g10
S'\x00\x01\x00\x00\x00\x00\x00\x00'
tRp1038
g1
(g12
g3
NtRp1039
(dp1040
g15
g16
(g17
(I0
tS'b'
tRp1041
(I1
(I0
tg19
I00
S''
tbsg20
F20000
sg21
I1
sbsg8
(g10
S'\x01\x01\x00\x00\x00\x00\x00\x00'
tRp1042
g1
(g12
g3
NtRp1043
(dp1044
g15
g16
(g17
(I0
tS'b'
tRp1045
(I1
(I0
tg19
I00
S''
tbsg20
F20000
sg21
I1
sbsg8
(g10
S'\x02\x01\x00\x00\x00\x00\x00\x00'
tRp1046
g1
(g12
g3
NtRp1047
(dp1048
g15
g16
(g17
(I0
tS'b'
tRp1049
(I1
(I0
tg19
I00
S''
tbsg20
F20000
sg21
I1
sbsg8
(g10
S'\x03\x01\x00\x00\x00\x00\x00\x00'
tRp1050
g1
(g12
g3
NtRp1051
(dp1052
g15
g16
(g17
(I0
tS'b'
tRp1053
(I1
(I0
tg19
I00
S''
tbsg20
F20000
sg21
I1
sbsg8
(g10
S'\x04\x01\x00\x00\x00\x00\x00\x00'
tRp1054
g1
(g12
g3
NtRp1055
(dp1056
g15
g16
(g17
(I0
tS'b'
tRp1057
(I1
(I0
tg19
I00
S''
tbsg20
F20000
sg21
I1
sbsg8
(g10
S'\x05\x01\x00\x00\x00\x00\x00\x00'
tRp1058
g1
(g12
g3
NtRp1059
(dp1060
g15
g16
(g17
(I0
tS'b'
tRp1061
(I1
(I0
tg19
I00
S''
tbsg20
F20000
sg21
I1
sbsg8
(g19
S'\x00\x00\x83C'
tRp1062
g1
(g12
g3
NtRp1063
(dp1064
g15
g16
(g17
(I0
tS'b'
tRp1065
(I1
(I5
tg19
I00
S'3\xcf\x91E\x9a1\xa1E\x9a\x1d\xedE\x9a\xcd|F\xcd\x14\x94F'
tbsg20
F20000
sg21
I1
sbsg8
(g10
S'\x07\x01\x00\x00\x00\x00\x00\x00'
tRp1066
g1
(g12
g3
NtRp1067
(dp1068
g15
g16
(g17
(I0
tS'b'
tRp1069
(I1
(I0
tg19
I00
S''
tbsg20
F20000
sg21
I1
sbsg8
(g10
S'\x08\x01\x00\x00\x00\x00\x00\x00'
tRp1070
g1
(g12
g3
NtRp1071
(dp1072
g15
g16
(g17
(I0
tS'b'
tRp1073
(I1
(I0
tg19
I00
S''
tbsg20
F20000
sg21
I1
sbsg8
(g10
S'\t\x01\x00\x00\x00\x00\x00\x00'
tRp1074
g1
(g12
g3
NtRp1075
(dp1076
g15
g16
(g17
(I0
tS'b'
tRp1077
(I1
(I0
tg19
I00
S''
tbsg20
F20000
sg21
I1
sbsg8
(g10
S'\n\x01\x00\x00\x00\x00\x00\x00'
tRp1078
g1
(g12
g3
NtRp1079
(dp1080
g15
g16
(g17
(I0
tS'b'
tRp1081
(I1
(I0
tg19
I00
S''
tbsg20
F20000
sg21
I1
sbsg8
(g10
S'\x0b\x01\x00\x00\x00\x00\x00\x00'
tRp1082
g1
(g12
g3
NtRp1083
(dp1084
g15
g16
(g17
(I0
tS'b'
tRp1085
(I1
(I0
tg19
I00
S''
tbsg20
F20000
sg21
I1
sbsg8
(g10
S'\x0c\x01\x00\x00\x00\x00\x00\x00'
tRp1086
g1
(g12
g3
NtRp1087
(dp1088
g15
g16
(g17
(I0
tS'b'
tRp1089
(I1
(I0
tg19
I00
S''
tbsg20
F20000
sg21
I1
sbsg8
(g10
S'\r\x01\x00\x00\x00\x00\x00\x00'
tRp1090
g1
(g12
g3
NtRp1091
(dp1092
g15
g16
(g17
(I0
tS'b'
tRp1093
(I1
(I0
tg19
I00
S''
tbsg20
F20000
sg21
I1
sbsg8
(g19
S'\x00\x00\x87C'
tRp1094
g1
(g12
g3
NtRp1095
(dp1096
g15
g16
(g17
(I0
tS'b'
tRp1097
(I1
(I3
tg19
I00
S'\x9a!\xa7E\xcd\xcc\xffEf\x9c2F'
tbsg20
F20000
sg21
I1
sbsg8
(g10
S'\x0f\x01\x00\x00\x00\x00\x00\x00'
tRp1098
g1
(g12
g3
NtRp1099
(dp1100
g15
g16
(g17
(I0
tS'b'
tRp1101
(I1
(I0
tg19
I00
S''
tbsg20
F20000
sg21
I1
sbsg8
(g10
S'\x10\x01\x00\x00\x00\x00\x00\x00'
tRp1102
g1
(g12
g3
NtRp1103
(dp1104
g15
g16
(g17
(I0
tS'b'
tRp1105
(I1
(I0
tg19
I00
S''
tbsg20
F20000
sg21
I1
sbsg8
(g10
S'\x11\x01\x00\x00\x00\x00\x00\x00'
tRp1106
g1
(g12
g3
NtRp1107
(dp1108
g15
g16
(g17
(I0
tS'b'
tRp1109
(I1
(I0
tg19
I00
S''
tbsg20
F20000
sg21
I1
sbsg8
(g10
S'\x12\x01\x00\x00\x00\x00\x00\x00'
tRp1110
g1
(g12
g3
NtRp1111
(dp1112
g15
g16
(g17
(I0
tS'b'
tRp1113
(I1
(I0
tg19
I00
S''
tbsg20
F20000
sg21
I1
sbsg8
(g10
S'\x13\x01\x00\x00\x00\x00\x00\x00'
tRp1114
g1
(g12
g3
NtRp1115
(dp1116
g15
g16
(g17
(I0
tS'b'
tRp1117
(I1
(I0
tg19
I00
S''
tbsg20
F20000
sg21
I1
sbsg8
(g10
S'\x14\x01\x00\x00\x00\x00\x00\x00'
tRp1118
g1
(g12
g3
NtRp1119
(dp1120
g15
g16
(g17
(I0
tS'b'
tRp1121
(I1
(I0
tg19
I00
S''
tbsg20
F20000
sg21
I1
sbsg8
(g10
S'\x15\x01\x00\x00\x00\x00\x00\x00'
tRp1122
g1
(g12
g3
NtRp1123
(dp1124
g15
g16
(g17
(I0
tS'b'
tRp1125
(I1
(I0
tg19
I00
S''
tbsg20
F20000
sg21
I1
sbsg8
(g19
S'\x00\x00\x8bC'
tRp1126
g1
(g12
g3
NtRp1127
(dp1128
g15
g16
(g17
(I0
tS'b'
tRp1129
(I1
(I3
tg19
I00
S'\xcd\x9c\x08Ef\xd2\xf2Ef\x0e\\F'
tbsg20
F20000
sg21
I1
sbsg8
(g10
S'\x17\x01\x00\x00\x00\x00\x00\x00'
tRp1130
g1
(g12
g3
NtRp1131
(dp1132
g15
g16
(g17
(I0
tS'b'
tRp1133
(I1
(I0
tg19
I00
S''
tbsg20
F20000
sg21
I1
sbsg8
(g10
S'\x18\x01\x00\x00\x00\x00\x00\x00'
tRp1134
g1
(g12
g3
NtRp1135
(dp1136
g15
g16
(g17
(I0
tS'b'
tRp1137
(I1
(I0
tg19
I00
S''
tbsg20
F20000
sg21
I1
sbsg8
(g10
S'\x19\x01\x00\x00\x00\x00\x00\x00'
tRp1138
g1
(g12
g3
NtRp1139
(dp1140
g15
g16
(g17
(I0
tS'b'
tRp1141
(I1
(I0
tg19
I00
S''
tbsg20
F20000
sg21
I1
sbsg8
(g10
S'\x1a\x01\x00\x00\x00\x00\x00\x00'
tRp1142
g1
(g12
g3
NtRp1143
(dp1144
g15
g16
(g17
(I0
tS'b'
tRp1145
(I1
(I0
tg19
I00
S''
tbsg20
F20000
sg21
I1
sbsg8
(g10
S'\x1b\x01\x00\x00\x00\x00\x00\x00'
tRp1146
g1
(g12
g3
NtRp1147
(dp1148
g15
g16
(g17
(I0
tS'b'
tRp1149
(I1
(I0
tg19
I00
S''
tbsg20
F20000
sg21
I1
sbsg8
(g10
S'\x1c\x01\x00\x00\x00\x00\x00\x00'
tRp1150
g1
(g12
g3
NtRp1151
(dp1152
g15
g16
(g17
(I0
tS'b'
tRp1153
(I1
(I0
tg19
I00
S''
tbsg20
F20000
sg21
I1
sbsg8
(g10
S'\x1d\x01\x00\x00\x00\x00\x00\x00'
tRp1154
g1
(g12
g3
NtRp1155
(dp1156
g15
g16
(g17
(I0
tS'b'
tRp1157
(I1
(I0
tg19
I00
S''
tbsg20
F20000
sg21
I1
sbsg8
(g19
S'\x00\x00\x8fC'
tRp1158
g1
(g12
g3
NtRp1159
(dp1160
g15
g16
(g17
(I0
tS'b'
tRp1161
(I1
(I2
tg19
I00
S'\xcd\x0c\xccD\x00\x94\xfcE'
tbsg20
F20000
sg21
I1
sbsg8
(g10
S'\x1f\x01\x00\x00\x00\x00\x00\x00'
tRp1162
g1
(g12
g3
NtRp1163
(dp1164
g15
g16
(g17
(I0
tS'b'
tRp1165
(I1
(I0
tg19
I00
S''
tbsg20
F20000
sg21
I1
sbsg8
(g10
S' \x01\x00\x00\x00\x00\x00\x00'
tRp1166
g1
(g12
g3
NtRp1167
(dp1168
g15
g16
(g17
(I0
tS'b'
tRp1169
(I1
(I0
tg19
I00
S''
tbsg20
F20000
sg21
I1
sbsg8
(g10
S'!\x01\x00\x00\x00\x00\x00\x00'
tRp1170
g1
(g12
g3
NtRp1171
(dp1172
g15
g16
(g17
(I0
tS'b'
tRp1173
(I1
(I0
tg19
I00
S''
tbsg20
F20000
sg21
I1
sbsg8
(g10
S'"\x01\x00\x00\x00\x00\x00\x00'
tRp1174
g1
(g12
g3
NtRp1175
(dp1176
g15
g16
(g17
(I0
tS'b'
tRp1177
(I1
(I0
tg19
I00
S''
tbsg20
F20000
sg21
I1
sbsg8
(g10
S'#\x01\x00\x00\x00\x00\x00\x00'
tRp1178
g1
(g12
g3
NtRp1179
(dp1180
g15
g16
(g17
(I0
tS'b'
tRp1181
(I1
(I0
tg19
I00
S''
tbsg20
F20000
sg21
I1
sbsg8
(g10
S'$\x01\x00\x00\x00\x00\x00\x00'
tRp1182
g1
(g12
g3
NtRp1183
(dp1184
g15
g16
(g17
(I0
tS'b'
tRp1185
(I1
(I0
tg19
I00
S''
tbsg20
F20000
sg21
I1
sbsg8
(g10
S'%\x01\x00\x00\x00\x00\x00\x00'
tRp1186
g1
(g12
g3
NtRp1187
(dp1188
g15
g16
(g17
(I0
tS'b'
tRp1189
(I1
(I0
tg19
I00
S''
tbsg20
F20000
sg21
I1
sbsg8
(g19
S'\x00\x00\x93C'
tRp1190
g1
(g12
g3
NtRp1191
(dp1192
g15
g16
(g17
(I0
tS'b'
tRp1193
(I1
(I2
tg19
I00
S'\x00j F\x9a\xcf;F'
tbsg20
F20000
sg21
I1
sbsg8
(g10
S"'\x01\x00\x00\x00\x00\x00\x00"
tRp1194
g1
(g12
g3
NtRp1195
(dp1196
g15
g16
(g17
(I0
tS'b'
tRp1197
(I1
(I0
tg19
I00
S''
tbsg20
F20000
sg21
I1
sbsg8
(g10
S'(\x01\x00\x00\x00\x00\x00\x00'
tRp1198
g1
(g12
g3
NtRp1199
(dp1200
g15
g16
(g17
(I0
tS'b'
tRp1201
(I1
(I0
tg19
I00
S''
tbsg20
F20000
sg21
I1
sbsg8
(g10
S')\x01\x00\x00\x00\x00\x00\x00'
tRp1202
g1
(g12
g3
NtRp1203
(dp1204
g15
g16
(g17
(I0
tS'b'
tRp1205
(I1
(I0
tg19
I00
S''
tbsg20
F20000
sg21
I1
sbsg8
(g10
S'*\x01\x00\x00\x00\x00\x00\x00'
tRp1206
g1
(g12
g3
NtRp1207
(dp1208
g15
g16
(g17
(I0
tS'b'
tRp1209
(I1
(I0
tg19
I00
S''
tbsg20
F20000
sg21
I1
sbsg8
(g10
S'+\x01\x00\x00\x00\x00\x00\x00'
tRp1210
g1
(g12
g3
NtRp1211
(dp1212
g15
g16
(g17
(I0
tS'b'
tRp1213
(I1
(I0
tg19
I00
S''
tbsg20
F20000
sg21
I1
sbsg8
(g10
S',\x01\x00\x00\x00\x00\x00\x00'
tRp1214
g1
(g12
g3
NtRp1215
(dp1216
g15
g16
(g17
(I0
tS'b'
tRp1217
(I1
(I0
tg19
I00
S''
tbsg20
F20000
sg21
I1
sbsg8
(g10
S'-\x01\x00\x00\x00\x00\x00\x00'
tRp1218
g1
(g12
g3
NtRp1219
(dp1220
g15
g16
(g17
(I0
tS'b'
tRp1221
(I1
(I0
tg19
I00
S''
tbsg20
F20000
sg21
I1
sbsg8
(g19
S'\x00\x00\x97C'
tRp1222
g1
(g12
g3
NtRp1223
(dp1224
g15
g16
(g17
(I0
tS'b'
tRp1225
(I1
(I4
tg19
I00
S'\x9a\x99vE\xcd\xfcGF3kcF\x9a-\x84F'
tbsg20
F20000
sg21
I1
sbsg8
(g10
S'/\x01\x00\x00\x00\x00\x00\x00'
tRp1226
g1
(g12
g3
NtRp1227
(dp1228
g15
g16
(g17
(I0
tS'b'
tRp1229
(I1
(I0
tg19
I00
S''
tbsg20
F20000
sg21
I1
sbsg8
(g10
S'0\x01\x00\x00\x00\x00\x00\x00'
tRp1230
g1
(g12
g3
NtRp1231
(dp1232
g15
g16
(g17
(I0
tS'b'
tRp1233
(I1
(I0
tg19
I00
S''
tbsg20
F20000
sg21
I1
sbsg8
(g10
S'1\x01\x00\x00\x00\x00\x00\x00'
tRp1234
g1
(g12
g3
NtRp1235
(dp1236
g15
g16
(g17
(I0
tS'b'
tRp1237
(I1
(I0
tg19
I00
S''
tbsg20
F20000
sg21
I1
sbsg8
(g10
S'2\x01\x00\x00\x00\x00\x00\x00'
tRp1238
g1
(g12
g3
NtRp1239
(dp1240
g15
g16
(g17
(I0
tS'b'
tRp1241
(I1
(I0
tg19
I00
S''
tbsg20
F20000
sg21
I1
sbsg8
(g10
S'3\x01\x00\x00\x00\x00\x00\x00'
tRp1242
g1
(g12
g3
NtRp1243
(dp1244
g15
g16
(g17
(I0
tS'b'
tRp1245
(I1
(I0
tg19
I00
S''
tbsg20
F20000
sg21
I1
sbsg8
(g10
S'4\x01\x00\x00\x00\x00\x00\x00'
tRp1246
g1
(g12
g3
NtRp1247
(dp1248
g15
g16
(g17
(I0
tS'b'
tRp1249
(I1
(I0
tg19
I00
S''
tbsg20
F20000
sg21
I1
sbsg8
(g10
S'5\x01\x00\x00\x00\x00\x00\x00'
tRp1250
g1
(g12
g3
NtRp1251
(dp1252
g15
g16
(g17
(I0
tS'b'
tRp1253
(I1
(I0
tg19
I00
S''
tbsg20
F20000
sg21
I1
sbsg8
(g19
S'\x00\x00\x9bC'
tRp1254
g1
(g12
g3
NtRp1255
(dp1256
g15
g16
(g17
(I0
tS'b'
tRp1257
(I1
(I1
tg19
I00
S'\x9a@\x86F'
tbsg20
F20000
sg21
I1
sbsg8
(g10
S'7\x01\x00\x00\x00\x00\x00\x00'
tRp1258
g1
(g12
g3
NtRp1259
(dp1260
g15
g16
(g17
(I0
tS'b'
tRp1261
(I1
(I0
tg19
I00
S''
tbsg20
F20000
sg21
I1
sbsg8
(g10
S'8\x01\x00\x00\x00\x00\x00\x00'
tRp1262
g1
(g12
g3
NtRp1263
(dp1264
g15
g16
(g17
(I0
tS'b'
tRp1265
(I1
(I0
tg19
I00
S''
tbsg20
F20000
sg21
I1
sbsg8
(g10
S'9\x01\x00\x00\x00\x00\x00\x00'
tRp1266
g1
(g12
g3
NtRp1267
(dp1268
g15
g16
(g17
(I0
tS'b'
tRp1269
(I1
(I0
tg19
I00
S''
tbsg20
F20000
sg21
I1
sbsg8
(g10
S':\x01\x00\x00\x00\x00\x00\x00'
tRp1270
g1
(g12
g3
NtRp1271
(dp1272
g15
g16
(g17
(I0
tS'b'
tRp1273
(I1
(I0
tg19
I00
S''
tbsg20
F20000
sg21
I1
sbsg8
(g10
S';\x01\x00\x00\x00\x00\x00\x00'
tRp1274
g1
(g12
g3
NtRp1275
(dp1276
g15
g16
(g17
(I0
tS'b'
tRp1277
(I1
(I0
tg19
I00
S''
tbsg20
F20000
sg21
I1
sbsg8
(g10
S'<\x01\x00\x00\x00\x00\x00\x00'
tRp1278
g1
(g12
g3
NtRp1279
(dp1280
g15
g16
(g17
(I0
tS'b'
tRp1281
(I1
(I0
tg19
I00
S''
tbsg20
F20000
sg21
I1
sbsg8
(g10
S'=\x01\x00\x00\x00\x00\x00\x00'
tRp1282
g1
(g12
g3
NtRp1283
(dp1284
g15
g16
(g17
(I0
tS'b'
tRp1285
(I1
(I0
tg19
I00
S''
tbsg20
F20000
sg21
I1
sbsg8
(g19
S'\x00\x00\x9fC'
tRp1286
g1
(g12
g3
NtRp1287
(dp1288
g15
g16
(g17
(I0
tS'b'
tRp1289
(I1
(I2
tg19
I00
S'3\xf7\xa4E\x9aapF'
tbsg20
F20000
sg21
I1
sbsg8
(g10
S'?\x01\x00\x00\x00\x00\x00\x00'
tRp1290
g1
(g12
g3
NtRp1291
(dp1292
g15
g16
(g17
(I0
tS'b'
tRp1293
(I1
(I0
tg19
I00
S''
tbsg20
F20000
sg21
I1
sbsg8
(g10
S'@\x01\x00\x00\x00\x00\x00\x00'
tRp1294
g1
(g12
g3
NtRp1295
(dp1296
g15
g16
(g17
(I0
tS'b'
tRp1297
(I1
(I0
tg19
I00
S''
tbsg20
F20000
sg21
I1
sbsg8
(g10
S'A\x01\x00\x00\x00\x00\x00\x00'
tRp1298
g1
(g12
g3
NtRp1299
(dp1300
g15
g16
(g17
(I0
tS'b'
tRp1301
(I1
(I0
tg19
I00
S''
tbsg20
F20000
sg21
I1
sbsg8
(g10
S'B\x01\x00\x00\x00\x00\x00\x00'
tRp1302
g1
(g12
g3
NtRp1303
(dp1304
g15
g16
(g17
(I0
tS'b'
tRp1305
(I1
(I0
tg19
I00
S''
tbsg20
F20000
sg21
I1
sbsg8
(g10
S'C\x01\x00\x00\x00\x00\x00\x00'
tRp1306
g1
(g12
g3
NtRp1307
(dp1308
g15
g16
(g17
(I0
tS'b'
tRp1309
(I1
(I0
tg19
I00
S''
tbsg20
F20000
sg21
I1
sbsg8
(g10
S'D\x01\x00\x00\x00\x00\x00\x00'
tRp1310
g1
(g12
g3
NtRp1311
(dp1312
g15
g16
(g17
(I0
tS'b'
tRp1313
(I1
(I0
tg19
I00
S''
tbsg20
F20000
sg21
I1
sbsg8
(g10
S'E\x01\x00\x00\x00\x00\x00\x00'
tRp1314
g1
(g12
g3
NtRp1315
(dp1316
g15
g16
(g17
(I0
tS'b'
tRp1317
(I1
(I0
tg19
I00
S''
tbsg20
F20000
sg21
I1
sbsg8
(g19
S'\x00\x00\xa3C'
tRp1318
g1
(g12
g3
NtRp1319
(dp1320
g15
g16
(g17
(I0
tS'b'
tRp1321
(I1
(I1
tg19
I00
S'\x00TRF'
tbsg20
F20000
sg21
I1
sbsg8
(g10
S'G\x01\x00\x00\x00\x00\x00\x00'
tRp1322
g1
(g12
g3
NtRp1323
(dp1324
g15
g16
(g17
(I0
tS'b'
tRp1325
(I1
(I0
tg19
I00
S''
tbsg20
F20000
sg21
I1
sbsg8
(g10
S'H\x01\x00\x00\x00\x00\x00\x00'
tRp1326
g1
(g12
g3
NtRp1327
(dp1328
g15
g16
(g17
(I0
tS'b'
tRp1329
(I1
(I0
tg19
I00
S''
tbsg20
F20000
sg21
I1
sbsg8
(g10
S'I\x01\x00\x00\x00\x00\x00\x00'
tRp1330
g1
(g12
g3
NtRp1331
(dp1332
g15
g16
(g17
(I0
tS'b'
tRp1333
(I1
(I0
tg19
I00
S''
tbsg20
F20000
sg21
I1
sbsg8
(g10
S'J\x01\x00\x00\x00\x00\x00\x00'
tRp1334
g1
(g12
g3
NtRp1335
(dp1336
g15
g16
(g17
(I0
tS'b'
tRp1337
(I1
(I0
tg19
I00
S''
tbsg20
F20000
sg21
I1
sbsg8
(g10
S'K\x01\x00\x00\x00\x00\x00\x00'
tRp1338
g1
(g12
g3
NtRp1339
(dp1340
g15
g16
(g17
(I0
tS'b'
tRp1341
(I1
(I0
tg19
I00
S''
tbsg20
F20000
sg21
I1
sbsg8
(g10
S'L\x01\x00\x00\x00\x00\x00\x00'
tRp1342
g1
(g12
g3
NtRp1343
(dp1344
g15
g16
(g17
(I0
tS'b'
tRp1345
(I1
(I0
tg19
I00
S''
tbsg20
F20000
sg21
I1
sbsg8
(g10
S'M\x01\x00\x00\x00\x00\x00\x00'
tRp1346
g1
(g12
g3
NtRp1347
(dp1348
g15
g16
(g17
(I0
tS'b'
tRp1349
(I1
(I0
tg19
I00
S''
tbsg20
F20000
sg21
I1
sbsg8
(g19
S'\x00\x00\xa7C'
tRp1350
g1
(g12
g3
NtRp1351
(dp1352
g15
g16
(g17
(I0
tS'b'
tRp1353
(I1
(I1
tg19
I00
S'3\xbf\x83F'
tbsg20
F20000
sg21
I1
sbsg8
(g10
S'O\x01\x00\x00\x00\x00\x00\x00'
tRp1354
g1
(g12
g3
NtRp1355
(dp1356
g15
g16
(g17
(I0
tS'b'
tRp1357
(I1
(I0
tg19
I00
S''
tbsg20
F20000
sg21
I1
sbsg8
(g10
S'P\x01\x00\x00\x00\x00\x00\x00'
tRp1358
g1
(g12
g3
NtRp1359
(dp1360
g15
g16
(g17
(I0
tS'b'
tRp1361
(I1
(I0
tg19
I00
S''
tbsg20
F20000
sg21
I1
sbsg8
(g10
S'Q\x01\x00\x00\x00\x00\x00\x00'
tRp1362
g1
(g12
g3
NtRp1363
(dp1364
g15
g16
(g17
(I0
tS'b'
tRp1365
(I1
(I0
tg19
I00
S''
tbsg20
F20000
sg21
I1
sbsg8
(g10
S'R\x01\x00\x00\x00\x00\x00\x00'
tRp1366
g1
(g12
g3
NtRp1367
(dp1368
g15
g16
(g17
(I0
tS'b'
tRp1369
(I1
(I0
tg19
I00
S''
tbsg20
F20000
sg21
I1
sbsg8
(g10
S'S\x01\x00\x00\x00\x00\x00\x00'
tRp1370
g1
(g12
g3
NtRp1371
(dp1372
g15
g16
(g17
(I0
tS'b'
tRp1373
(I1
(I0
tg19
I00
S''
tbsg20
F20000
sg21
I1
sbsg8
(g10
S'T\x01\x00\x00\x00\x00\x00\x00'
tRp1374
g1
(g12
g3
NtRp1375
(dp1376
g15
g16
(g17
(I0
tS'b'
tRp1377
(I1
(I0
tg19
I00
S''
tbsg20
F20000
sg21
I1
sbsg8
(g10
S'U\x01\x00\x00\x00\x00\x00\x00'
tRp1378
g1
(g12
g3
NtRp1379
(dp1380
g15
g16
(g17
(I0
tS'b'
tRp1381
(I1
(I0
tg19
I00
S''
tbsg20
F20000
sg21
I1
sbsg8
(g19
S'\x00\x00\xabC'
tRp1382
g1
(g12
g3
NtRp1383
(dp1384
g15
g16
(g17
(I0
tS'b'
tRp1385
(I1
(I2
tg19
I00
S'f\xc6\x0cF3\xb71F'
tbsg20
F20000
sg21
I1
sbsg8
(g10
S'W\x01\x00\x00\x00\x00\x00\x00'
tRp1386
g1
(g12
g3
NtRp1387
(dp1388
g15
g16
(g17
(I0
tS'b'
tRp1389
(I1
(I0
tg19
I00
S''
tbsg20
F20000
sg21
I1
sbsg8
(g10
S'X\x01\x00\x00\x00\x00\x00\x00'
tRp1390
g1
(g12
g3
NtRp1391
(dp1392
g15
g16
(g17
(I0
tS'b'
tRp1393
(I1
(I0
tg19
I00
S''
tbsg20
F20000
sg21
I1
sbsg8
(g10
S'Y\x01\x00\x00\x00\x00\x00\x00'
tRp1394
g1
(g12
g3
NtRp1395
(dp1396
g15
g16
(g17
(I0
tS'b'
tRp1397
(I1
(I0
tg19
I00
S''
tbsg20
F20000
sg21
I1
sbsg8
(g10
S'Z\x01\x00\x00\x00\x00\x00\x00'
tRp1398
g1
(g12
g3
NtRp1399
(dp1400
g15
g16
(g17
(I0
tS'b'
tRp1401
(I1
(I0
tg19
I00
S''
tbsg20
F20000
sg21
I1
sbsg8
(g10
S'[\x01\x00\x00\x00\x00\x00\x00'
tRp1402
g1
(g12
g3
NtRp1403
(dp1404
g15
g16
(g17
(I0
tS'b'
tRp1405
(I1
(I0
tg19
I00
S''
tbsg20
F20000
sg21
I1
sbsg8
(g10
S'\\\x01\x00\x00\x00\x00\x00\x00'
tRp1406
g1
(g12
g3
NtRp1407
(dp1408
g15
g16
(g17
(I0
tS'b'
tRp1409
(I1
(I0
tg19
I00
S''
tbsg20
F20000
sg21
I1
sbsg8
(g10
S']\x01\x00\x00\x00\x00\x00\x00'
tRp1410
g1
(g12
g3
NtRp1411
(dp1412
g15
g16
(g17
(I0
tS'b'
tRp1413
(I1
(I0
tg19
I00
S''
tbsg20
F20000
sg21
I1
sbsg8
(g19
S'\x00\x00\xafC'
tRp1414
g1
(g12
g3
NtRp1415
(dp1416
g15
g16
(g17
(I0
tS'b'
tRp1417
(I1
(I6
tg19
I00
S'\xcdL^E\xcd\x00qF\x9a+qF3\xa5xF3\x89\x7fF\x00\n\x83F'
tbsg20
F20000
sg21
I1
sbsg8
(g10
S'_\x01\x00\x00\x00\x00\x00\x00'
tRp1418
g1
(g12
g3
NtRp1419
(dp1420
g15
g16
(g17
(I0
tS'b'
tRp1421
(I1
(I0
tg19
I00
S''
tbsg20
F20000
sg21
I1
sbsg8
(g10
S'`\x01\x00\x00\x00\x00\x00\x00'
tRp1422
g1
(g12
g3
NtRp1423
(dp1424
g15
g16
(g17
(I0
tS'b'
tRp1425
(I1
(I0
tg19
I00
S''
tbsg20
F20000
sg21
I1
sbsg8
(g10
S'a\x01\x00\x00\x00\x00\x00\x00'
tRp1426
g1
(g12
g3
NtRp1427
(dp1428
g15
g16
(g17
(I0
tS'b'
tRp1429
(I1
(I0
tg19
I00
S''
tbsg20
F20000
sg21
I1
sbsg8
(g10
S'b\x01\x00\x00\x00\x00\x00\x00'
tRp1430
g1
(g12
g3
NtRp1431
(dp1432
g15
g16
(g17
(I0
tS'b'
tRp1433
(I1
(I0
tg19
I00
S''
tbsg20
F20000
sg21
I1
sbsg8
(g10
S'c\x01\x00\x00\x00\x00\x00\x00'
tRp1434
g1
(g12
g3
NtRp1435
(dp1436
g15
g16
(g17
(I0
tS'b'
tRp1437
(I1
(I0
tg19
I00
S''
tbsg20
F20000
sg21
I1
sbsg8
(g10
S'd\x01\x00\x00\x00\x00\x00\x00'
tRp1438
g1
(g12
g3
NtRp1439
(dp1440
g15
g16
(g17
(I0
tS'b'
tRp1441
(I1
(I0
tg19
I00
S''
tbsg20
F20000
sg21
I1
sbsg8
(g10
S'e\x01\x00\x00\x00\x00\x00\x00'
tRp1442
g1
(g12
g3
NtRp1443
(dp1444
g15
g16
(g17
(I0
tS'b'
tRp1445
(I1
(I0
tg19
I00
S''
tbsg20
F20000
sg21
I1
sbsg8
(g19
S'\x00\x00\xb3C'
tRp1446
g1
(g12
g3
NtRp1447
(dp1448
g15
g16
(g17
(I0
tS'b'
tRp1449
(I1
(I4
tg19
I00
S'3\xb5\x0eF\x00\x08\x1aFfT%F\xcdh4F'
tbsg20
F20000
sg21
I1
sbsg8
(g10
S'g\x01\x00\x00\x00\x00\x00\x00'
tRp1450
g1
(g12
g3
NtRp1451
(dp1452
g15
g16
(g17
(I0
tS'b'
tRp1453
(I1
(I0
tg19
I00
S''
tbsg20
F20000
sg21
I1
sbsg8
(g10
S'h\x01\x00\x00\x00\x00\x00\x00'
tRp1454
g1
(g12
g3
NtRp1455
(dp1456
g15
g16
(g17
(I0
tS'b'
tRp1457
(I1
(I0
tg19
I00
S''
tbsg20
F20000
sg21
I1
sbsg8
(g10
S'i\x01\x00\x00\x00\x00\x00\x00'
tRp1458
g1
(g12
g3
NtRp1459
(dp1460
g15
g16
(g17
(I0
tS'b'
tRp1461
(I1
(I0
tg19
I00
S''
tbsg20
F20000
sg21
I1
sbsg8
(g10
S'j\x01\x00\x00\x00\x00\x00\x00'
tRp1462
g1
(g12
g3
NtRp1463
(dp1464
g15
g16
(g17
(I0
tS'b'
tRp1465
(I1
(I0
tg19
I00
S''
tbsg20
F20000
sg21
I1
sbsg8
(g10
S'k\x01\x00\x00\x00\x00\x00\x00'
tRp1466
g1
(g12
g3
NtRp1467
(dp1468
g15
g16
(g17
(I0
tS'b'
tRp1469
(I1
(I0
tg19
I00
S''
tbsg20
F20000
sg21
I1
sbsg8
(g10
S'l\x01\x00\x00\x00\x00\x00\x00'
tRp1470
g1
(g12
g3
NtRp1471
(dp1472
g15
g16
(g17
(I0
tS'b'
tRp1473
(I1
(I0
tg19
I00
S''
tbsg20
F20000
sg21
I1
sbsg8
(g10
S'm\x01\x00\x00\x00\x00\x00\x00'
tRp1474
g1
(g12
g3
NtRp1475
(dp1476
g15
g16
(g17
(I0
tS'b'
tRp1477
(I1
(I0
tg19
I00
S''
tbsg20
F20000
sg21
I1
sbsg8
(g19
S'\x00\x00\xb7C'
tRp1478
g1
(g12
g3
NtRp1479
(dp1480
g15
g16
(g17
(I0
tS'b'
tRp1481
(I1
(I5
tg19
I00
S'\x9a\xc9\x8aEf\xda\xd2E\x9a}\xd8Ef\xf8!F3\xa7_F'
tbsg20
F20000
sg21
I1
sbsg8
(g10
S'o\x01\x00\x00\x00\x00\x00\x00'
tRp1482
g1
(g12
g3
NtRp1483
(dp1484
g15
g16
(g17
(I0
tS'b'
tRp1485
(I1
(I0
tg19
I00
S''
tbsg20
F20000
sg21
I1
sbsg8
(g10
S'p\x01\x00\x00\x00\x00\x00\x00'
tRp1486
g1
(g12
g3
NtRp1487
(dp1488
g15
g16
(g17
(I0
tS'b'
tRp1489
(I1
(I0
tg19
I00
S''
tbsg20
F20000
sg21
I1
sbsg8
(g10
S'q\x01\x00\x00\x00\x00\x00\x00'
tRp1490
g1
(g12
g3
NtRp1491
(dp1492
g15
g16
(g17
(I0
tS'b'
tRp1493
(I1
(I0
tg19
I00
S''
tbsg20
F20000
sg21
I1
sbsg8
(g10
S'r\x01\x00\x00\x00\x00\x00\x00'
tRp1494
g1
(g12
g3
NtRp1495
(dp1496
g15
g16
(g17
(I0
tS'b'
tRp1497
(I1
(I0
tg19
I00
S''
tbsg20
F20000
sg21
I1
sbsg8
(g10
S's\x01\x00\x00\x00\x00\x00\x00'
tRp1498
g1
(g12
g3
NtRp1499
(dp1500
g15
g16
(g17
(I0
tS'b'
tRp1501
(I1
(I0
tg19
I00
S''
tbsg20
F20000
sg21
I1
sbsg8
(g10
S't\x01\x00\x00\x00\x00\x00\x00'
tRp1502
g1
(g12
g3
NtRp1503
(dp1504
g15
g16
(g17
(I0
tS'b'
tRp1505
(I1
(I0
tg19
I00
S''
tbsg20
F20000
sg21
I1
sbsg8
(g10
S'u\x01\x00\x00\x00\x00\x00\x00'
tRp1506
g1
(g12
g3
NtRp1507
(dp1508
g15
g16
(g17
(I0
tS'b'
tRp1509
(I1
(I0
tg19
I00
S''
tbsg20
F20000
sg21
I1
sbsg8
(g19
S'\x00\x00\xbbC'
tRp1510
g1
(g12
g3
NtRp1511
(dp1512
g15
g16
(g17
(I0
tS'b'
tRp1513
(I1
(I2
tg19
I00
S'3\x03\x9cEf\x1e\x9cE'
tbsg20
F20000
sg21
I1
sbsg8
(g10
S'w\x01\x00\x00\x00\x00\x00\x00'
tRp1514
g1
(g12
g3
NtRp1515
(dp1516
g15
g16
(g17
(I0
tS'b'
tRp1517
(I1
(I0
tg19
I00
S''
tbsg20
F20000
sg21
I1
sbsg8
(g10
S'x\x01\x00\x00\x00\x00\x00\x00'
tRp1518
g1
(g12
g3
NtRp1519
(dp1520
g15
g16
(g17
(I0
tS'b'
tRp1521
(I1
(I0
tg19
I00
S''
tbsg20
F20000
sg21
I1
sbsg8
(g10
S'y\x01\x00\x00\x00\x00\x00\x00'
tRp1522
g1
(g12
g3
NtRp1523
(dp1524
g15
g16
(g17
(I0
tS'b'
tRp1525
(I1
(I0
tg19
I00
S''
tbsg20
F20000
sg21
I1
sbsg8
(g10
S'z\x01\x00\x00\x00\x00\x00\x00'
tRp1526
g1
(g12
g3
NtRp1527
(dp1528
g15
g16
(g17
(I0
tS'b'
tRp1529
(I1
(I0
tg19
I00
S''
tbsg20
F20000
sg21
I1
sbsg8
(g10
S'{\x01\x00\x00\x00\x00\x00\x00'
tRp1530
g1
(g12
g3
NtRp1531
(dp1532
g15
g16
(g17
(I0
tS'b'
tRp1533
(I1
(I0
tg19
I00
S''
tbsg20
F20000
sg21
I1
sbsg8
(g10
S'|\x01\x00\x00\x00\x00\x00\x00'
tRp1534
g1
(g12
g3
NtRp1535
(dp1536
g15
g16
(g17
(I0
tS'b'
tRp1537
(I1
(I0
tg19
I00
S''
tbsg20
F20000
sg21
I1
sbsg8
(g10
S'}\x01\x00\x00\x00\x00\x00\x00'
tRp1538
g1
(g12
g3
NtRp1539
(dp1540
g15
g16
(g17
(I0
tS'b'
tRp1541
(I1
(I0
tg19
I00
S''
tbsg20
F20000
sg21
I1
sbsg8
(g19
S'\x00\x00\xbfC'
tRp1542
g1
(g12
g3
NtRp1543
(dp1544
g15
g16
(g17
(I0
tS'b'
tRp1545
(I1
(I3
tg19
I00
S'3\xef\rF\x9a\xcfOF\x00T\x84F'
tbsg20
F20000
sg21
I1
sbsg8
(g10
S'\x7f\x01\x00\x00\x00\x00\x00\x00'
tRp1546
g1
(g12
g3
NtRp1547
(dp1548
g15
g16
(g17
(I0
tS'b'
tRp1549
(I1
(I0
tg19
I00
S''
tbsg20
F20000
sg21
I1
sbsg8
(g10
S'\x80\x01\x00\x00\x00\x00\x00\x00'
tRp1550
g1
(g12
g3
NtRp1551
(dp1552
g15
g16
(g17
(I0
tS'b'
tRp1553
(I1
(I0
tg19
I00
S''
tbsg20
F20000
sg21
I1
sbsg8
(g10
S'\x81\x01\x00\x00\x00\x00\x00\x00'
tRp1554
g1
(g12
g3
NtRp1555
(dp1556
g15
g16
(g17
(I0
tS'b'
tRp1557
(I1
(I0
tg19
I00
S''
tbsg20
F20000
sg21
I1
sbsg8
(g10
S'\x82\x01\x00\x00\x00\x00\x00\x00'
tRp1558
g1
(g12
g3
NtRp1559
(dp1560
g15
g16
(g17
(I0
tS'b'
tRp1561
(I1
(I0
tg19
I00
S''
tbsg20
F20000
sg21
I1
sbsg8
(g10
S'\x83\x01\x00\x00\x00\x00\x00\x00'
tRp1562
g1
(g12
g3
NtRp1563
(dp1564
g15
g16
(g17
(I0
tS'b'
tRp1565
(I1
(I0
tg19
I00
S''
tbsg20
F20000
sg21
I1
sbsg8
(g10
S'\x84\x01\x00\x00\x00\x00\x00\x00'
tRp1566
g1
(g12
g3
NtRp1567
(dp1568
g15
g16
(g17
(I0
tS'b'
tRp1569
(I1
(I0
tg19
I00
S''
tbsg20
F20000
sg21
I1
sbsg8
(g10
S'\x85\x01\x00\x00\x00\x00\x00\x00'
tRp1570
g1
(g12
g3
NtRp1571
(dp1572
g15
g16
(g17
(I0
tS'b'
tRp1573
(I1
(I0
tg19
I00
S''
tbsg20
F20000
sg21
I1
sbsg8
(g19
S'\x00\x00\xc3C'
tRp1574
g1
(g12
g3
NtRp1575
(dp1576
g15
g16
(g17
(I0
tS'b'
tRp1577
(I1
(I2
tg19
I00
S'3+mF\xcd\xc1\x84F'
tbsg20
F20000
sg21
I1
sbsg8
(g10
S'\x87\x01\x00\x00\x00\x00\x00\x00'
tRp1578
g1
(g12
g3
NtRp1579
(dp1580
g15
g16
(g17
(I0
tS'b'
tRp1581
(I1
(I0
tg19
I00
S''
tbsg20
F20000
sg21
I1
sbsg8
(g10
S'\x88\x01\x00\x00\x00\x00\x00\x00'
tRp1582
g1
(g12
g3
NtRp1583
(dp1584
g15
g16
(g17
(I0
tS'b'
tRp1585
(I1
(I0
tg19
I00
S''
tbsg20
F20000
sg21
I1
sbsg8
(g10
S'\x89\x01\x00\x00\x00\x00\x00\x00'
tRp1586
g1
(g12
g3
NtRp1587
(dp1588
g15
g16
(g17
(I0
tS'b'
tRp1589
(I1
(I0
tg19
I00
S''
tbsg20
F20000
sg21
I1
sbsg8
(g10
S'\x8a\x01\x00\x00\x00\x00\x00\x00'
tRp1590
g1
(g12
g3
NtRp1591
(dp1592
g15
g16
(g17
(I0
tS'b'
tRp1593
(I1
(I0
tg19
I00
S''
tbsg20
F20000
sg21
I1
sbsg8
(g10
S'\x8b\x01\x00\x00\x00\x00\x00\x00'
tRp1594
g1
(g12
g3
NtRp1595
(dp1596
g15
g16
(g17
(I0
tS'b'
tRp1597
(I1
(I0
tg19
I00
S''
tbsg20
F20000
sg21
I1
sbsg8
(g10
S'\x8c\x01\x00\x00\x00\x00\x00\x00'
tRp1598
g1
(g12
g3
NtRp1599
(dp1600
g15
g16
(g17
(I0
tS'b'
tRp1601
(I1
(I0
tg19
I00
S''
tbsg20
F20000
sg21
I1
sbsg8
(g10
S'\x8d\x01\x00\x00\x00\x00\x00\x00'
tRp1602
g1
(g12
g3
NtRp1603
(dp1604
g15
g16
(g17
(I0
tS'b'
tRp1605
(I1
(I0
tg19
I00
S''
tbsg20
F20000
sg21
I1
sbsg8
(g19
S'\x00\x00\xc7C'
tRp1606
g1
(g12
g3
NtRp1607
(dp1608
g15
g16
(g17
(I0
tS'b'
tRp1609
(I1
(I3
tg19
I00
S'\xcd<\x06E\xcdX\xfaE33;F'
tbsg20
F20000
sg21
I1
sbsg8
(g10
S'\x8f\x01\x00\x00\x00\x00\x00\x00'
tRp1610
g1
(g12
g3
NtRp1611
(dp1612
g15
g16
(g17
(I0
tS'b'
tRp1613
(I1
(I0
tg19
I00
S''
tbsg20
F20000
sg21
I1
sbsg8
(g10
S'\x90\x01\x00\x00\x00\x00\x00\x00'
tRp1614
g1
(g12
g3
NtRp1615
(dp1616
g15
g16
(g17
(I0
tS'b'
tRp1617
(I1
(I0
tg19
I00
S''
tbsg20
F20000
sg21
I1
sbsg8
(g10
S'\x91\x01\x00\x00\x00\x00\x00\x00'
tRp1618
g1
(g12
g3
NtRp1619
(dp1620
g15
g16
(g17
(I0
tS'b'
tRp1621
(I1
(I0
tg19
I00
S''
tbsg20
F20000
sg21
I1
sbsg8
(g10
S'\x92\x01\x00\x00\x00\x00\x00\x00'
tRp1622
g1
(g12
g3
NtRp1623
(dp1624
g15
g16
(g17
(I0
tS'b'
tRp1625
(I1
(I0
tg19
I00
S''
tbsg20
F20000
sg21
I1
sbsg8
(g10
S'\x93\x01\x00\x00\x00\x00\x00\x00'
tRp1626
g1
(g12
g3
NtRp1627
(dp1628
g15
g16
(g17
(I0
tS'b'
tRp1629
(I1
(I0
tg19
I00
S''
tbsg20
F20000
sg21
I1
sbsg8
(g10
S'\x94\x01\x00\x00\x00\x00\x00\x00'
tRp1630
g1
(g12
g3
NtRp1631
(dp1632
g15
g16
(g17
(I0
tS'b'
tRp1633
(I1
(I0
tg19
I00
S''
tbsg20
F20000
sg21
I1
sbsg8
(g10
S'\x95\x01\x00\x00\x00\x00\x00\x00'
tRp1634
g1
(g12
g3
NtRp1635
(dp1636
g15
g16
(g17
(I0
tS'b'
tRp1637
(I1
(I0
tg19
I00
S''
tbsg20
F20000
sg21
I1
sbsg8
(g19
S'\x00\x00\xcbC'
tRp1638
g1
(g12
g3
NtRp1639
(dp1640
g15
g16
(g17
(I0
tS'b'
tRp1641
(I1
(I2
tg19
I00
S'\x9a%\xb5E\x9aq\x0bF'
tbsg20
F20000
sg21
I1
sbsg8
(g10
S'\x97\x01\x00\x00\x00\x00\x00\x00'
tRp1642
g1
(g12
g3
NtRp1643
(dp1644
g15
g16
(g17
(I0
tS'b'
tRp1645
(I1
(I0
tg19
I00
S''
tbsg20
F20000
sg21
I1
sbsg8
(g10
S'\x98\x01\x00\x00\x00\x00\x00\x00'
tRp1646
g1
(g12
g3
NtRp1647
(dp1648
g15
g16
(g17
(I0
tS'b'
tRp1649
(I1
(I0
tg19
I00
S''
tbsg20
F20000
sg21
I1
sbsg8
(g10
S'\x99\x01\x00\x00\x00\x00\x00\x00'
tRp1650
g1
(g12
g3
NtRp1651
(dp1652
g15
g16
(g17
(I0
tS'b'
tRp1653
(I1
(I0
tg19
I00
S''
tbsg20
F20000
sg21
I1
sbsg8
(g10
S'\x9a\x01\x00\x00\x00\x00\x00\x00'
tRp1654
g1
(g12
g3
NtRp1655
(dp1656
g15
g16
(g17
(I0
tS'b'
tRp1657
(I1
(I0
tg19
I00
S''
tbsg20
F20000
sg21
I1
sbsg8
(g10
S'\x9b\x01\x00\x00\x00\x00\x00\x00'
tRp1658
g1
(g12
g3
NtRp1659
(dp1660
g15
g16
(g17
(I0
tS'b'
tRp1661
(I1
(I0
tg19
I00
S''
tbsg20
F20000
sg21
I1
sbsg8
(g10
S'\x9c\x01\x00\x00\x00\x00\x00\x00'
tRp1662
g1
(g12
g3
NtRp1663
(dp1664
g15
g16
(g17
(I0
tS'b'
tRp1665
(I1
(I0
tg19
I00
S''
tbsg20
F20000
sg21
I1
sbsg8
(g10
S'\x9d\x01\x00\x00\x00\x00\x00\x00'
tRp1666
g1
(g12
g3
NtRp1667
(dp1668
g15
g16
(g17
(I0
tS'b'
tRp1669
(I1
(I0
tg19
I00
S''
tbsg20
F20000
sg21
I1
sbsg8
(g19
S'\x00\x00\xcfC'
tRp1670
g1
(g12
g3
NtRp1671
(dp1672
g15
g16
(g17
(I0
tS'b'
tRp1673
(I1
(I4
tg19
I00
S'\xcd\x8c\x05F\x00\xc4\x1cF3#.F\x9a\x8fhF'
tbsg20
F20000
sg21
I1
sbsg8
(g10
S'\x9f\x01\x00\x00\x00\x00\x00\x00'
tRp1674
g1
(g12
g3
NtRp1675
(dp1676
g15
g16
(g17
(I0
tS'b'
tRp1677
(I1
(I0
tg19
I00
S''
tbsg20
F20000
sg21
I1
sbsg8
(g10
S'\xa0\x01\x00\x00\x00\x00\x00\x00'
tRp1678
g1
(g12
g3
NtRp1679
(dp1680
g15
g16
(g17
(I0
tS'b'
tRp1681
(I1
(I0
tg19
I00
S''
tbsg20
F20000
sg21
I1
sbsg8
(g10
S'\xa1\x01\x00\x00\x00\x00\x00\x00'
tRp1682
g1
(g12
g3
NtRp1683
(dp1684
g15
g16
(g17
(I0
tS'b'
tRp1685
(I1
(I0
tg19
I00
S''
tbsg20
F20000
sg21
I1
sbsg8
(g10
S'\xa2\x01\x00\x00\x00\x00\x00\x00'
tRp1686
g1
(g12
g3
NtRp1687
(dp1688
g15
g16
(g17
(I0
tS'b'
tRp1689
(I1
(I0
tg19
I00
S''
tbsg20
F20000
sg21
I1
sbsg8
(g10
S'\xa3\x01\x00\x00\x00\x00\x00\x00'
tRp1690
g1
(g12
g3
NtRp1691
(dp1692
g15
g16
(g17
(I0
tS'b'
tRp1693
(I1
(I0
tg19
I00
S''
tbsg20
F20000
sg21
I1
sbsg8
(g10
S'\xa4\x01\x00\x00\x00\x00\x00\x00'
tRp1694
g1
(g12
g3
NtRp1695
(dp1696
g15
g16
(g17
(I0
tS'b'
tRp1697
(I1
(I0
tg19
I00
S''
tbsg20
F20000
sg21
I1
sbsg8
(g10
S'\xa5\x01\x00\x00\x00\x00\x00\x00'
tRp1698
g1
(g12
g3
NtRp1699
(dp1700
g15
g16
(g17
(I0
tS'b'
tRp1701
(I1
(I0
tg19
I00
S''
tbsg20
F20000
sg21
I1
sbsg8
(g19
S'\x00\x00\xd3C'
tRp1702
g1
(g12
g3
NtRp1703
(dp1704
g15
g16
(g17
(I0
tS'b'
tRp1705
(I1
(I1
tg19
I00
S'\x9a[\x1eF'
tbsg20
F20000
sg21
I1
sbsg8
(g10
S'\xa7\x01\x00\x00\x00\x00\x00\x00'
tRp1706
g1
(g12
g3
NtRp1707
(dp1708
g15
g16
(g17
(I0
tS'b'
tRp1709
(I1
(I0
tg19
I00
S''
tbsg20
F20000
sg21
I1
sbsg8
(g10
S'\xa8\x01\x00\x00\x00\x00\x00\x00'
tRp1710
g1
(g12
g3
NtRp1711
(dp1712
g15
g16
(g17
(I0
tS'b'
tRp1713
(I1
(I0
tg19
I00
S''
tbsg20
F20000
sg21
I1
sbsg8
(g10
S'\xa9\x01\x00\x00\x00\x00\x00\x00'
tRp1714
g1
(g12
g3
NtRp1715
(dp1716
g15
g16
(g17
(I0
tS'b'
tRp1717
(I1
(I0
tg19
I00
S''
tbsg20
F20000
sg21
I1
sbsg8
(g10
S'\xaa\x01\x00\x00\x00\x00\x00\x00'
tRp1718
g1
(g12
g3
NtRp1719
(dp1720
g15
g16
(g17
(I0
tS'b'
tRp1721
(I1
(I0
tg19
I00
S''
tbsg20
F20000
sg21
I1
sbsg8
(g10
S'\xab\x01\x00\x00\x00\x00\x00\x00'
tRp1722
g1
(g12
g3
NtRp1723
(dp1724
g15
g16
(g17
(I0
tS'b'
tRp1725
(I1
(I0
tg19
I00
S''
tbsg20
F20000
sg21
I1
sbsg8
(g10
S'\xac\x01\x00\x00\x00\x00\x00\x00'
tRp1726
g1
(g12
g3
NtRp1727
(dp1728
g15
g16
(g17
(I0
tS'b'
tRp1729
(I1
(I0
tg19
I00
S''
tbsg20
F20000
sg21
I1
sbsg8
(g10
S'\xad\x01\x00\x00\x00\x00\x00\x00'
tRp1730
g1
(g12
g3
NtRp1731
(dp1732
g15
g16
(g17
(I0
tS'b'
tRp1733
(I1
(I0
tg19
I00
S''
tbsg20
F20000
sg21
I1
sbsg8
(g19
S'\x00\x00\xd7C'
tRp1734
g1
(g12
g3
NtRp1735
(dp1736
g15
g16
(g17
(I0
tS'b'
tRp1737
(I1
(I2
tg19
I00
S'\xcd\xcc\x8dE\x00p\rF'
tbsg20
F20000
sg21
I1
sbsg8
(g10
S'\xaf\x01\x00\x00\x00\x00\x00\x00'
tRp1738
g1
(g12
g3
NtRp1739
(dp1740
g15
g16
(g17
(I0
tS'b'
tRp1741
(I1
(I0
tg19
I00
S''
tbsg20
F20000
sg21
I1
sbsg8
(g10
S'\xb0\x01\x00\x00\x00\x00\x00\x00'
tRp1742
g1
(g12
g3
NtRp1743
(dp1744
g15
g16
(g17
(I0
tS'b'
tRp1745
(I1
(I0
tg19
I00
S''
tbsg20
F20000
sg21
I1
sbsg8
(g10
S'\xb1\x01\x00\x00\x00\x00\x00\x00'
tRp1746
g1
(g12
g3
NtRp1747
(dp1748
g15
g16
(g17
(I0
tS'b'
tRp1749
(I1
(I0
tg19
I00
S''
tbsg20
F20000
sg21
I1
sbsg8
(g10
S'\xb2\x01\x00\x00\x00\x00\x00\x00'
tRp1750
g1
(g12
g3
NtRp1751
(dp1752
g15
g16
(g17
(I0
tS'b'
tRp1753
(I1
(I0
tg19
I00
S''
tbsg20
F20000
sg21
I1
sbsg8
(g10
S'\xb3\x01\x00\x00\x00\x00\x00\x00'
tRp1754
g1
(g12
g3
NtRp1755
(dp1756
g15
g16
(g17
(I0
tS'b'
tRp1757
(I1
(I0
tg19
I00
S''
tbsg20
F20000
sg21
I1
sbsg8
(g10
S'\xb4\x01\x00\x00\x00\x00\x00\x00'
tRp1758
g1
(g12
g3
NtRp1759
(dp1760
g15
g16
(g17
(I0
tS'b'
tRp1761
(I1
(I0
tg19
I00
S''
tbsg20
F20000
sg21
I1
sbsg8
(g10
S'\xb5\x01\x00\x00\x00\x00\x00\x00'
tRp1762
g1
(g12
g3
NtRp1763
(dp1764
g15
g16
(g17
(I0
tS'b'
tRp1765
(I1
(I0
tg19
I00
S''
tbsg20
F20000
sg21
I1
sbsg8
(g19
S'\x00\x00\xdbC'
tRp1766
g1
(g12
g3
NtRp1767
(dp1768
g15
g16
(g17
(I0
tS'b'
tRp1769
(I1
(I1
tg19
I00
S'\x00\xe0\x95F'
tbsg20
F20000
sg21
I1
sbsg8
(g10
S'\xb7\x01\x00\x00\x00\x00\x00\x00'
tRp1770
g1
(g12
g3
NtRp1771
(dp1772
g15
g16
(g17
(I0
tS'b'
tRp1773
(I1
(I0
tg19
I00
S''
tbsg20
F20000
sg21
I1
sbsg8
(g10
S'\xb8\x01\x00\x00\x00\x00\x00\x00'
tRp1774
g1
(g12
g3
NtRp1775
(dp1776
g15
g16
(g17
(I0
tS'b'
tRp1777
(I1
(I0
tg19
I00
S''
tbsg20
F20000
sg21
I1
sbsg8
(g10
S'\xb9\x01\x00\x00\x00\x00\x00\x00'
tRp1778
g1
(g12
g3
NtRp1779
(dp1780
g15
g16
(g17
(I0
tS'b'
tRp1781
(I1
(I0
tg19
I00
S''
tbsg20
F20000
sg21
I1
sbsg8
(g10
S'\xba\x01\x00\x00\x00\x00\x00\x00'
tRp1782
g1
(g12
g3
NtRp1783
(dp1784
g15
g16
(g17
(I0
tS'b'
tRp1785
(I1
(I0
tg19
I00
S''
tbsg20
F20000
sg21
I1
sbsg8
(g10
S'\xbb\x01\x00\x00\x00\x00\x00\x00'
tRp1786
g1
(g12
g3
NtRp1787
(dp1788
g15
g16
(g17
(I0
tS'b'
tRp1789
(I1
(I0
tg19
I00
S''
tbsg20
F20000
sg21
I1
sbsg8
(g10
S'\xbc\x01\x00\x00\x00\x00\x00\x00'
tRp1790
g1
(g12
g3
NtRp1791
(dp1792
g15
g16
(g17
(I0
tS'b'
tRp1793
(I1
(I0
tg19
I00
S''
tbsg20
F20000
sg21
I1
sbsg8
(g10
S'\xbd\x01\x00\x00\x00\x00\x00\x00'
tRp1794
g1
(g12
g3
NtRp1795
(dp1796
g15
g16
(g17
(I0
tS'b'
tRp1797
(I1
(I0
tg19
I00
S''
tbsg20
F20000
sg21
I1
sbsg8
(g19
S'\x00\x00\xdfC'
tRp1798
g1
(g12
g3
NtRp1799
(dp1800
g15
g16
(g17
(I0
tS'b'
tRp1801
(I1
(I5
tg19
I00
S'\xcd\xbc\x05Ef\x90dF\x00z\x86Ff\x94\x87F\x00M\x91F'
tbsg20
F20000
sg21
I1
sbsg8
(g10
S'\xbf\x01\x00\x00\x00\x00\x00\x00'
tRp1802
g1
(g12
g3
NtRp1803
(dp1804
g15
g16
(g17
(I0
tS'b'
tRp1805
(I1
(I0
tg19
I00
S''
tbsg20
F20000
sg21
I1
sbsg8
(g10
S'\xc0\x01\x00\x00\x00\x00\x00\x00'
tRp1806
g1
(g12
g3
NtRp1807
(dp1808
g15
g16
(g17
(I0
tS'b'
tRp1809
(I1
(I0
tg19
I00
S''
tbsg20
F20000
sg21
I1
sbsg8
(g10
S'\xc1\x01\x00\x00\x00\x00\x00\x00'
tRp1810
g1
(g12
g3
NtRp1811
(dp1812
g15
g16
(g17
(I0
tS'b'
tRp1813
(I1
(I0
tg19
I00
S''
tbsg20
F20000
sg21
I1
sbsg8
(g10
S'\xc2\x01\x00\x00\x00\x00\x00\x00'
tRp1814
g1
(g12
g3
NtRp1815
(dp1816
g15
g16
(g17
(I0
tS'b'
tRp1817
(I1
(I0
tg19
I00
S''
tbsg20
F20000
sg21
I1
sbsg8
(g10
S'\xc3\x01\x00\x00\x00\x00\x00\x00'
tRp1818
g1
(g12
g3
NtRp1819
(dp1820
g15
g16
(g17
(I0
tS'b'
tRp1821
(I1
(I0
tg19
I00
S''
tbsg20
F20000
sg21
I1
sbsg8
(g10
S'\xc4\x01\x00\x00\x00\x00\x00\x00'
tRp1822
g1
(g12
g3
NtRp1823
(dp1824
g15
g16
(g17
(I0
tS'b'
tRp1825
(I1
(I0
tg19
I00
S''
tbsg20
F20000
sg21
I1
sbsg8
(g10
S'\xc5\x01\x00\x00\x00\x00\x00\x00'
tRp1826
g1
(g12
g3
NtRp1827
(dp1828
g15
g16
(g17
(I0
tS'b'
tRp1829
(I1
(I0
tg19
I00
S''
tbsg20
F20000
sg21
I1
sbsg8
(g19
S'\x00\x00\xe3C'
tRp1830
g1
(g12
g3
NtRp1831
(dp1832
g15
g16
(g17
(I0
tS'b'
tRp1833
(I1
(I2
tg19
I00
S'\xcd\xb8>F\x9a\xb9RF'
tbsg20
F20000
sg21
I1
sbsg8
(g10
S'\xc7\x01\x00\x00\x00\x00\x00\x00'
tRp1834
g1
(g12
g3
NtRp1835
(dp1836
g15
g16
(g17
(I0
tS'b'
tRp1837
(I1
(I0
tg19
I00
S''
tbsg20
F20000
sg21
I1
sbsg8
(g10
S'\xc8\x01\x00\x00\x00\x00\x00\x00'
tRp1838
g1
(g12
g3
NtRp1839
(dp1840
g15
g16
(g17
(I0
tS'b'
tRp1841
(I1
(I0
tg19
I00
S''
tbsg20
F20000
sg21
I1
sbsg8
(g10
S'\xc9\x01\x00\x00\x00\x00\x00\x00'
tRp1842
g1
(g12
g3
NtRp1843
(dp1844
g15
g16
(g17
(I0
tS'b'
tRp1845
(I1
(I0
tg19
I00
S''
tbsg20
F20000
sg21
I1
sbsg8
(g10
S'\xca\x01\x00\x00\x00\x00\x00\x00'
tRp1846
g1
(g12
g3
NtRp1847
(dp1848
g15
g16
(g17
(I0
tS'b'
tRp1849
(I1
(I0
tg19
I00
S''
tbsg20
F20000
sg21
I1
sbsg8
(g10
S'\xcb\x01\x00\x00\x00\x00\x00\x00'
tRp1850
g1
(g12
g3
NtRp1851
(dp1852
g15
g16
(g17
(I0
tS'b'
tRp1853
(I1
(I0
tg19
I00
S''
tbsg20
F20000
sg21
I1
sbsg8
(g10
S'\xcc\x01\x00\x00\x00\x00\x00\x00'
tRp1854
g1
(g12
g3
NtRp1855
(dp1856
g15
g16
(g17
(I0
tS'b'
tRp1857
(I1
(I0
tg19
I00
S''
tbsg20
F20000
sg21
I1
sbsg8
(g10
S'\xcd\x01\x00\x00\x00\x00\x00\x00'
tRp1858
g1
(g12
g3
NtRp1859
(dp1860
g15
g16
(g17
(I0
tS'b'
tRp1861
(I1
(I0
tg19
I00
S''
tbsg20
F20000
sg21
I1
sbsg8
(g19
S'\x00\x00\xe7C'
tRp1862
g1
(g12
g3
NtRp1863
(dp1864
g15
g16
(g17
(I0
tS'b'
tRp1865
(I1
(I3
tg19
I00
S'\xcdH\xb3Ef\x1c:F3gRF'
tbsg20
F20000
sg21
I1
sbsg8
(g10
S'\xcf\x01\x00\x00\x00\x00\x00\x00'
tRp1866
g1
(g12
g3
NtRp1867
(dp1868
g15
g16
(g17
(I0
tS'b'
tRp1869
(I1
(I0
tg19
I00
S''
tbsg20
F20000
sg21
I1
sbsg8
(g10
S'\xd0\x01\x00\x00\x00\x00\x00\x00'
tRp1870
g1
(g12
g3
NtRp1871
(dp1872
g15
g16
(g17
(I0
tS'b'
tRp1873
(I1
(I0
tg19
I00
S''
tbsg20
F20000
sg21
I1
sbsg8
(g10
S'\xd1\x01\x00\x00\x00\x00\x00\x00'
tRp1874
g1
(g12
g3
NtRp1875
(dp1876
g15
g16
(g17
(I0
tS'b'
tRp1877
(I1
(I0
tg19
I00
S''
tbsg20
F20000
sg21
I1
sbsg8
(g10
S'\xd2\x01\x00\x00\x00\x00\x00\x00'
tRp1878
g1
(g12
g3
NtRp1879
(dp1880
g15
g16
(g17
(I0
tS'b'
tRp1881
(I1
(I0
tg19
I00
S''
tbsg20
F20000
sg21
I1
sbsg8
(g10
S'\xd3\x01\x00\x00\x00\x00\x00\x00'
tRp1882
g1
(g12
g3
NtRp1883
(dp1884
g15
g16
(g17
(I0
tS'b'
tRp1885
(I1
(I0
tg19
I00
S''
tbsg20
F20000
sg21
I1
sbsg8
(g10
S'\xd4\x01\x00\x00\x00\x00\x00\x00'
tRp1886
g1
(g12
g3
NtRp1887
(dp1888
g15
g16
(g17
(I0
tS'b'
tRp1889
(I1
(I0
tg19
I00
S''
tbsg20
F20000
sg21
I1
sbsg8
(g10
S'\xd5\x01\x00\x00\x00\x00\x00\x00'
tRp1890
g1
(g12
g3
NtRp1891
(dp1892
g15
g16
(g17
(I0
tS'b'
tRp1893
(I1
(I0
tg19
I00
S''
tbsg20
F20000
sg21
I1
sbsg8
(g19
S'\x00\x00\xebC'
tRp1894
g1
(g12
g3
NtRp1895
(dp1896
g15
g16
(g17
(I0
tS'b'
tRp1897
(I1
(I1
tg19
I00
S'\xcd:!F'
tbsg20
F20000
sg21
I1
sbsg8
(g10
S'\xd7\x01\x00\x00\x00\x00\x00\x00'
tRp1898
g1
(g12
g3
NtRp1899
(dp1900
g15
g16
(g17
(I0
tS'b'
tRp1901
(I1
(I0
tg19
I00
S''
tbsg20
F20000
sg21
I1
sbsg8
(g10
S'\xd8\x01\x00\x00\x00\x00\x00\x00'
tRp1902
g1
(g12
g3
NtRp1903
(dp1904
g15
g16
(g17
(I0
tS'b'
tRp1905
(I1
(I0
tg19
I00
S''
tbsg20
F20000
sg21
I1
sbsg8
(g10
S'\xd9\x01\x00\x00\x00\x00\x00\x00'
tRp1906
g1
(g12
g3
NtRp1907
(dp1908
g15
g16
(g17
(I0
tS'b'
tRp1909
(I1
(I0
tg19
I00
S''
tbsg20
F20000
sg21
I1
sbsg8
(g10
S'\xda\x01\x00\x00\x00\x00\x00\x00'
tRp1910
g1
(g12
g3
NtRp1911
(dp1912
g15
g16
(g17
(I0
tS'b'
tRp1913
(I1
(I0
tg19
I00
S''
tbsg20
F20000
sg21
I1
sbsg8
(g10
S'\xdb\x01\x00\x00\x00\x00\x00\x00'
tRp1914
g1
(g12
g3
NtRp1915
(dp1916
g15
g16
(g17
(I0
tS'b'
tRp1917
(I1
(I0
tg19
I00
S''
tbsg20
F20000
sg21
I1
sbsg8
(g10
S'\xdc\x01\x00\x00\x00\x00\x00\x00'
tRp1918
g1
(g12
g3
NtRp1919
(dp1920
g15
g16
(g17
(I0
tS'b'
tRp1921
(I1
(I0
tg19
I00
S''
tbsg20
F20000
sg21
I1
sbsg8
(g10
S'\xdd\x01\x00\x00\x00\x00\x00\x00'
tRp1922
g1
(g12
g3
NtRp1923
(dp1924
g15
g16
(g17
(I0
tS'b'
tRp1925
(I1
(I0
tg19
I00
S''
tbsg20
F20000
sg21
I1
sbsg8
(g19
S'\x00\x00\xefC'
tRp1926
g1
(g12
g3
NtRp1927
(dp1928
g15
g16
(g17
(I0
tS'b'
tRp1929
(I1
(I7
tg19
I00
S'\xcd4\xb1E\x9a\xc5\xd8E\x00F4F\x00\xc4CF\x9a\xd9aFf\xe4oF\xcd\xd0qF'
tbsg20
F20000
sg21
I1
sbsg8
(g10
S'\xdf\x01\x00\x00\x00\x00\x00\x00'
tRp1930
g1
(g12
g3
NtRp1931
(dp1932
g15
g16
(g17
(I0
tS'b'
tRp1933
(I1
(I0
tg19
I00
S''
tbsg20
F20000
sg21
I1
sbsg8
(g10
S'\xe0\x01\x00\x00\x00\x00\x00\x00'
tRp1934
g1
(g12
g3
NtRp1935
(dp1936
g15
g16
(g17
(I0
tS'b'
tRp1937
(I1
(I0
tg19
I00
S''
tbsg20
F20000
sg21
I1
sbsg8
(g10
S'\xe1\x01\x00\x00\x00\x00\x00\x00'
tRp1938
g1
(g12
g3
NtRp1939
(dp1940
g15
g16
(g17
(I0
tS'b'
tRp1941
(I1
(I0
tg19
I00
S''
tbsg20
F20000
sg21
I1
sbsg8
(g10
S'\xe2\x01\x00\x00\x00\x00\x00\x00'
tRp1942
g1
(g12
g3
NtRp1943
(dp1944
g15
g16
(g17
(I0
tS'b'
tRp1945
(I1
(I0
tg19
I00
S''
tbsg20
F20000
sg21
I1
sbsg8
(g10
S'\xe3\x01\x00\x00\x00\x00\x00\x00'
tRp1946
g1
(g12
g3
NtRp1947
(dp1948
g15
g16
(g17
(I0
tS'b'
tRp1949
(I1
(I0
tg19
I00
S''
tbsg20
F20000
sg21
I1
sbsg8
(g10
S'\xe4\x01\x00\x00\x00\x00\x00\x00'
tRp1950
g1
(g12
g3
NtRp1951
(dp1952
g15
g16
(g17
(I0
tS'b'
tRp1953
(I1
(I0
tg19
I00
S''
tbsg20
F20000
sg21
I1
sbsg8
(g10
S'\xe5\x01\x00\x00\x00\x00\x00\x00'
tRp1954
g1
(g12
g3
NtRp1955
(dp1956
g15
g16
(g17
(I0
tS'b'
tRp1957
(I1
(I0
tg19
I00
S''
tbsg20
F20000
sg21
I1
sbsg8
(g19
S'\x00\x00\xf3C'
tRp1958
g1
(g12
g3
NtRp1959
(dp1960
g15
g16
(g17
(I0
tS'b'
tRp1961
(I1
(I3
tg19
I00
S'\x00(\x88E\xcd$\xb8E\x9a\xb6\x8cF'
tbsg20
F20000
sg21
I1
sbsg8
(g10
S'\xe7\x01\x00\x00\x00\x00\x00\x00'
tRp1962
g1
(g12
g3
NtRp1963
(dp1964
g15
g16
(g17
(I0
tS'b'
tRp1965
(I1
(I0
tg19
I00
S''
tbsg20
F20000
sg21
I1
sbsg8
(g10
S'\xe8\x01\x00\x00\x00\x00\x00\x00'
tRp1966
g1
(g12
g3
NtRp1967
(dp1968
g15
g16
(g17
(I0
tS'b'
tRp1969
(I1
(I0
tg19
I00
S''
tbsg20
F20000
sg21
I1
sbsg8
(g10
S'\xe9\x01\x00\x00\x00\x00\x00\x00'
tRp1970
g1
(g12
g3
NtRp1971
(dp1972
g15
g16
(g17
(I0
tS'b'
tRp1973
(I1
(I0
tg19
I00
S''
tbsg20
F20000
sg21
I1
sbsg8
(g10
S'\xea\x01\x00\x00\x00\x00\x00\x00'
tRp1974
g1
(g12
g3
NtRp1975
(dp1976
g15
g16
(g17
(I0
tS'b'
tRp1977
(I1
(I0
tg19
I00
S''
tbsg20
F20000
sg21
I1
sbsg8
(g10
S'\xeb\x01\x00\x00\x00\x00\x00\x00'
tRp1978
g1
(g12
g3
NtRp1979
(dp1980
g15
g16
(g17
(I0
tS'b'
tRp1981
(I1
(I0
tg19
I00
S''
tbsg20
F20000
sg21
I1
sbsg8
(g10
S'\xec\x01\x00\x00\x00\x00\x00\x00'
tRp1982
g1
(g12
g3
NtRp1983
(dp1984
g15
g16
(g17
(I0
tS'b'
tRp1985
(I1
(I0
tg19
I00
S''
tbsg20
F20000
sg21
I1
sbsg8
(g10
S'\xed\x01\x00\x00\x00\x00\x00\x00'
tRp1986
g1
(g12
g3
NtRp1987
(dp1988
g15
g16
(g17
(I0
tS'b'
tRp1989
(I1
(I0
tg19
I00
S''
tbsg20
F20000
sg21
I1
sbsg8
(g10
S'\xee\x01\x00\x00\x00\x00\x00\x00'
tRp1990
g1
(g12
g3
NtRp1991
(dp1992
g15
g16
(g17
(I0
tS'b'
tRp1993
(I1
(I0
tg19
I00
S''
tbsg20
F20000
sg21
I1
sbsg8
(g10
S'\xef\x01\x00\x00\x00\x00\x00\x00'
tRp1994
g1
(g12
g3
NtRp1995
(dp1996
g15
g16
(g17
(I0
tS'b'
tRp1997
(I1
(I0
tg19
I00
S''
tbsg20
F20000
sg21
I1
sbsg8
(g10
S'\xf0\x01\x00\x00\x00\x00\x00\x00'
tRp1998
g1
(g12
g3
NtRp1999
(dp2000
g15
g16
(g17
(I0
tS'b'
tRp2001
(I1
(I0
tg19
I00
S''
tbsg20
F20000
sg21
I1
sbsg8
(g10
S'\xf1\x01\x00\x00\x00\x00\x00\x00'
tRp2002
g1
(g12
g3
NtRp2003
(dp2004
g15
g16
(g17
(I0
tS'b'
tRp2005
(I1
(I0
tg19
I00
S''
tbsg20
F20000
sg21
I1
sbsg8
(g10
S'\xf2\x01\x00\x00\x00\x00\x00\x00'
tRp2006
g1
(g12
g3
NtRp2007
(dp2008
g15
g16
(g17
(I0
tS'b'
tRp2009
(I1
(I0
tg19
I00
S''
tbsg20
F20000
sg21
I1
sbsg8
(g10
S'\xf3\x01\x00\x00\x00\x00\x00\x00'
tRp2010
g1
(g12
g3
NtRp2011
(dp2012
g15
g16
(g17
(I0
tS'b'
tRp2013
(I1
(I0
tg19
I00
S''
tbsg20
F20000
sg21
I1
sbsg8
(g10
S'\xf4\x01\x00\x00\x00\x00\x00\x00'
tRp2014
g1
(g12
g3
NtRp2015
(dp2016
g15
g16
(g17
(I0
tS'b'
tRp2017
(I1
(I0
tg19
I00
S''
tbsg20
F20000
sg21
I1
sbssg20
F20000
sg21
I1
sS'dimensions'
p2018
Nsb.